

Microchip MPLAB XC8 Assembler V2.45 build 20230818022343 
                                                                                               Mon May 20 04:06:32 2024

Microchip MPLAB XC8 C Compiler v2.45 (Free license) build 20230818022343 Og1 
     1                           	processor	16F877A
     2                           	pagewidth 120
     3                           	opt	flic
     4                           	psect	idataBANK0,global,class=CODE,delta=2,noexec
     5                           	psect	idataBANK1,global,class=CODE,delta=2,noexec
     6                           	psect	cinit,global,class=CODE,merge=1,delta=2
     7                           	psect	bssBANK0,global,class=BANK0,space=1,delta=1,noexec
     8                           	psect	dataBANK0,global,class=BANK0,space=1,delta=1,noexec
     9                           	psect	bssBANK1,global,class=BANK1,space=1,delta=1,noexec
    10                           	psect	dataBANK1,global,class=BANK1,space=1,delta=1,noexec
    11                           	psect	inittext,global,class=CODE,delta=2
    12                           	psect	cstackBANK1,global,class=BANK1,space=1,delta=1,noexec
    13                           	psect	cstackCOMMON,global,class=COMMON,space=1,delta=1,noexec
    14                           	psect	cstackBANK0,global,class=BANK0,space=1,delta=1,noexec
    15                           	psect	maintext,global,class=CODE,split=1,delta=2
    16                           	psect	text1,local,class=CODE,merge=1,delta=2
    17                           	psect	text2,local,class=CODE,merge=1,delta=2
    18                           	psect	text3,local,class=CODE,merge=1,delta=2
    19                           	psect	text4,local,class=CODE,merge=1,delta=2
    20                           	psect	text5,local,class=CODE,merge=1,delta=2
    21                           	psect	text6,local,class=CODE,merge=1,delta=2
    22                           	psect	text7,local,class=CODE,merge=1,delta=2
    23                           	psect	text8,local,class=CODE,merge=1,delta=2
    24                           	psect	text9,local,class=CODE,merge=1,delta=2
    25                           	psect	text10,local,class=CODE,merge=1,delta=2
    26                           	psect	text11,local,class=CODE,merge=1,delta=2
    27                           	psect	text12,local,class=CODE,merge=1,delta=2
    28                           	psect	text13,local,class=CODE,merge=1,delta=2
    29                           	psect	text14,local,class=CODE,merge=1,delta=2,group=1
    30                           	psect	text15,local,class=CODE,merge=1,delta=2
    31                           	psect	intentry,global,class=CODE,delta=2
    32                           	psect	text16,local,class=CODE,merge=1,delta=2
    33                           	psect	text17,local,class=CODE,merge=1,delta=2
    34                           	psect	text18,local,class=CODE,merge=1,delta=2
    35                           	psect	text19,local,class=CODE,merge=1,delta=2
    36                           	psect	text20,local,class=CODE,merge=1,delta=2
    37                           	psect	text21,local,class=CODE,merge=1,delta=2
    38                           	psect	text22,local,class=CODE,merge=1,delta=2
    39                           	psect	text23,local,class=CODE,merge=1,delta=2
    40                           	psect	text24,local,class=CODE,merge=1,delta=2,group=1
    41                           	psect	text25,local,class=CODE,merge=1,delta=2,group=1
    42                           	psect	text26,local,class=CODE,merge=1,delta=2,group=1
    43                           	psect	text27,local,class=CODE,merge=1,delta=2,group=1
    44                           	psect	text28,local,class=CODE,merge=1,delta=2,group=1
    45                           	psect	functab,global,class=ENTRY,delta=2
    46                           	psect	config,global,abs,ovrld,class=CONFIG,space=4,delta=2,noexec
    47                           	dabs	1,0x7E,2
    48     0000                     
    49                           ; Generated 22/03/2023 GMT
    50                           ; 
    51                           ; Copyright © 2023, Microchip Technology Inc. and its subsidiaries ("Microchip")
    52                           ; All rights reserved.
    53                           ; 
    54                           ; This software is developed by Microchip Technology Inc. and its subsidiaries ("Microch
      +                          ip").
    55                           ; 
    56                           ; Redistribution and use in source and binary forms, with or without modification, are
    57                           ; permitted provided that the following conditions are met:
    58                           ; 
    59                           ;     1. Redistributions of source code must retain the above copyright notice, this lis
      +                          t of
    60                           ;        conditions and the following disclaimer.
    61                           ; 
    62                           ;     2. Redistributions in binary form must reproduce the above copyright notice, this 
      +                          list
    63                           ;        of conditions and the following disclaimer in the documentation and/or other
    64                           ;        materials provided with the distribution. Publication is not required when
    65                           ;        this file is used in an embedded application.
    66                           ; 
    67                           ;     3. Microchip's name may not be used to endorse or promote products derived from th
      +                          is
    68                           ;        software without specific prior written permission.
    69                           ; 
    70                           ; THIS SOFTWARE IS PROVIDED BY MICROCHIP "AS IS" AND ANY EXPRESS OR IMPLIED WARRANTIES,
    71                           ; INCLUDING, BUT NOT LIMITED TO, THE IMPLIED WARRANTIES OF MERCHANTABILITY AND FITNESS F
      +                          OR
    72                           ; PURPOSE ARE DISCLAIMED.  IN NO EVENT SHALL MICROCHIP BE LIABLE FOR ANY DIRECT, INDIREC
      +                          T,
    73                           ; INCIDENTAL, SPECIAL, EXEMPLARY, OR CONSEQUENTIAL DAMAGES (INCLUDING BUT NOT LIMITED TO
    74                           ; PROCUREMENT OF SUBSTITUTE GOODS OR SERVICES; LOSS OF USE, DATA OR PROFITS; OR BUSINESS
    75                           ; INTERRUPTION) HOWSOEVER CAUSED AND ON ANY THEORY OF LIABILITY, WHETHER IN CONTRACT, ST
      +                          RICT
    76                           ; LIABILITY, OR TORT (INCLUDING NEGLIGENCE OR OTHERWISE) ARISING IN ANY WAY OUT OF THE U
      +                          SE OF
    77                           ; THIS SOFTWARE, EVEN IF ADVISED OF THE POSSIBILITY OF SUCH DAMAGE.
    78                           ; 
    79                           ; 
    80                           ; Code-generator required, PIC16F877A Definitions
    81                           ; 
    82                           ; SFR Addresses
    83     0000                     	;# 
    84     0001                     	;# 
    85     0002                     	;# 
    86     0003                     	;# 
    87     0004                     	;# 
    88     0005                     	;# 
    89     0006                     	;# 
    90     0007                     	;# 
    91     0008                     	;# 
    92     0009                     	;# 
    93     000A                     	;# 
    94     000B                     	;# 
    95     000C                     	;# 
    96     000D                     	;# 
    97     000E                     	;# 
    98     000E                     	;# 
    99     000F                     	;# 
   100     0010                     	;# 
   101     0011                     	;# 
   102     0012                     	;# 
   103     0013                     	;# 
   104     0014                     	;# 
   105     0015                     	;# 
   106     0015                     	;# 
   107     0016                     	;# 
   108     0017                     	;# 
   109     0018                     	;# 
   110     0019                     	;# 
   111     001A                     	;# 
   112     001B                     	;# 
   113     001B                     	;# 
   114     001C                     	;# 
   115     001D                     	;# 
   116     001E                     	;# 
   117     001F                     	;# 
   118     0081                     	;# 
   119     0085                     	;# 
   120     0086                     	;# 
   121     0087                     	;# 
   122     0088                     	;# 
   123     0089                     	;# 
   124     008C                     	;# 
   125     008D                     	;# 
   126     008E                     	;# 
   127     0091                     	;# 
   128     0092                     	;# 
   129     0093                     	;# 
   130     0094                     	;# 
   131     0098                     	;# 
   132     0099                     	;# 
   133     009C                     	;# 
   134     009D                     	;# 
   135     009E                     	;# 
   136     009F                     	;# 
   137     010C                     	;# 
   138     010D                     	;# 
   139     010E                     	;# 
   140     010F                     	;# 
   141     018C                     	;# 
   142     018D                     	;# 
   143     0000                     	;# 
   144     0001                     	;# 
   145     0002                     	;# 
   146     0003                     	;# 
   147     0004                     	;# 
   148     0005                     	;# 
   149     0006                     	;# 
   150     0007                     	;# 
   151     0008                     	;# 
   152     0009                     	;# 
   153     000A                     	;# 
   154     000B                     	;# 
   155     000C                     	;# 
   156     000D                     	;# 
   157     000E                     	;# 
   158     000E                     	;# 
   159     000F                     	;# 
   160     0010                     	;# 
   161     0011                     	;# 
   162     0012                     	;# 
   163     0013                     	;# 
   164     0014                     	;# 
   165     0015                     	;# 
   166     0015                     	;# 
   167     0016                     	;# 
   168     0017                     	;# 
   169     0018                     	;# 
   170     0019                     	;# 
   171     001A                     	;# 
   172     001B                     	;# 
   173     001B                     	;# 
   174     001C                     	;# 
   175     001D                     	;# 
   176     001E                     	;# 
   177     001F                     	;# 
   178     0081                     	;# 
   179     0085                     	;# 
   180     0086                     	;# 
   181     0087                     	;# 
   182     0088                     	;# 
   183     0089                     	;# 
   184     008C                     	;# 
   185     008D                     	;# 
   186     008E                     	;# 
   187     0091                     	;# 
   188     0092                     	;# 
   189     0093                     	;# 
   190     0094                     	;# 
   191     0098                     	;# 
   192     0099                     	;# 
   193     009C                     	;# 
   194     009D                     	;# 
   195     009E                     	;# 
   196     009F                     	;# 
   197     010C                     	;# 
   198     010D                     	;# 
   199     010E                     	;# 
   200     010F                     	;# 
   201     018C                     	;# 
   202     018D                     	;# 
   203     0000                     	;# 
   204     0001                     	;# 
   205     0002                     	;# 
   206     0003                     	;# 
   207     0004                     	;# 
   208     0005                     	;# 
   209     0006                     	;# 
   210     0007                     	;# 
   211     0008                     	;# 
   212     0009                     	;# 
   213     000A                     	;# 
   214     000B                     	;# 
   215     000C                     	;# 
   216     000D                     	;# 
   217     000E                     	;# 
   218     000E                     	;# 
   219     000F                     	;# 
   220     0010                     	;# 
   221     0011                     	;# 
   222     0012                     	;# 
   223     0013                     	;# 
   224     0014                     	;# 
   225     0015                     	;# 
   226     0015                     	;# 
   227     0016                     	;# 
   228     0017                     	;# 
   229     0018                     	;# 
   230     0019                     	;# 
   231     001A                     	;# 
   232     001B                     	;# 
   233     001B                     	;# 
   234     001C                     	;# 
   235     001D                     	;# 
   236     001E                     	;# 
   237     001F                     	;# 
   238     0081                     	;# 
   239     0085                     	;# 
   240     0086                     	;# 
   241     0087                     	;# 
   242     0088                     	;# 
   243     0089                     	;# 
   244     008C                     	;# 
   245     008D                     	;# 
   246     008E                     	;# 
   247     0091                     	;# 
   248     0092                     	;# 
   249     0093                     	;# 
   250     0094                     	;# 
   251     0098                     	;# 
   252     0099                     	;# 
   253     009C                     	;# 
   254     009D                     	;# 
   255     009E                     	;# 
   256     009F                     	;# 
   257     010C                     	;# 
   258     010D                     	;# 
   259     010E                     	;# 
   260     010F                     	;# 
   261     018C                     	;# 
   262     018D                     	;# 
   263     0000                     	;# 
   264     0001                     	;# 
   265     0002                     	;# 
   266     0003                     	;# 
   267     0004                     	;# 
   268     0005                     	;# 
   269     0006                     	;# 
   270     0007                     	;# 
   271     0008                     	;# 
   272     0009                     	;# 
   273     000A                     	;# 
   274     000B                     	;# 
   275     000C                     	;# 
   276     000D                     	;# 
   277     000E                     	;# 
   278     000E                     	;# 
   279     000F                     	;# 
   280     0010                     	;# 
   281     0011                     	;# 
   282     0012                     	;# 
   283     0013                     	;# 
   284     0014                     	;# 
   285     0015                     	;# 
   286     0015                     	;# 
   287     0016                     	;# 
   288     0017                     	;# 
   289     0018                     	;# 
   290     0019                     	;# 
   291     001A                     	;# 
   292     001B                     	;# 
   293     001B                     	;# 
   294     001C                     	;# 
   295     001D                     	;# 
   296     001E                     	;# 
   297     001F                     	;# 
   298     0081                     	;# 
   299     0085                     	;# 
   300     0086                     	;# 
   301     0087                     	;# 
   302     0088                     	;# 
   303     0089                     	;# 
   304     008C                     	;# 
   305     008D                     	;# 
   306     008E                     	;# 
   307     0091                     	;# 
   308     0092                     	;# 
   309     0093                     	;# 
   310     0094                     	;# 
   311     0098                     	;# 
   312     0099                     	;# 
   313     009C                     	;# 
   314     009D                     	;# 
   315     009E                     	;# 
   316     009F                     	;# 
   317     010C                     	;# 
   318     010D                     	;# 
   319     010E                     	;# 
   320     010F                     	;# 
   321     018C                     	;# 
   322     018D                     	;# 
   323     0000                     	;# 
   324     0001                     	;# 
   325     0002                     	;# 
   326     0003                     	;# 
   327     0004                     	;# 
   328     0005                     	;# 
   329     0006                     	;# 
   330     0007                     	;# 
   331     0008                     	;# 
   332     0009                     	;# 
   333     000A                     	;# 
   334     000B                     	;# 
   335     000C                     	;# 
   336     000D                     	;# 
   337     000E                     	;# 
   338     000E                     	;# 
   339     000F                     	;# 
   340     0010                     	;# 
   341     0011                     	;# 
   342     0012                     	;# 
   343     0013                     	;# 
   344     0014                     	;# 
   345     0015                     	;# 
   346     0015                     	;# 
   347     0016                     	;# 
   348     0017                     	;# 
   349     0018                     	;# 
   350     0019                     	;# 
   351     001A                     	;# 
   352     001B                     	;# 
   353     001B                     	;# 
   354     001C                     	;# 
   355     001D                     	;# 
   356     001E                     	;# 
   357     001F                     	;# 
   358     0081                     	;# 
   359     0085                     	;# 
   360     0086                     	;# 
   361     0087                     	;# 
   362     0088                     	;# 
   363     0089                     	;# 
   364     008C                     	;# 
   365     008D                     	;# 
   366     008E                     	;# 
   367     0091                     	;# 
   368     0092                     	;# 
   369     0093                     	;# 
   370     0094                     	;# 
   371     0098                     	;# 
   372     0099                     	;# 
   373     009C                     	;# 
   374     009D                     	;# 
   375     009E                     	;# 
   376     009F                     	;# 
   377     010C                     	;# 
   378     010D                     	;# 
   379     010E                     	;# 
   380     010F                     	;# 
   381     018C                     	;# 
   382     018D                     	;# 
   383     0000                     	;# 
   384     0001                     	;# 
   385     0002                     	;# 
   386     0003                     	;# 
   387     0004                     	;# 
   388     0005                     	;# 
   389     0006                     	;# 
   390     0007                     	;# 
   391     0008                     	;# 
   392     0009                     	;# 
   393     000A                     	;# 
   394     000B                     	;# 
   395     000C                     	;# 
   396     000D                     	;# 
   397     000E                     	;# 
   398     000E                     	;# 
   399     000F                     	;# 
   400     0010                     	;# 
   401     0011                     	;# 
   402     0012                     	;# 
   403     0013                     	;# 
   404     0014                     	;# 
   405     0015                     	;# 
   406     0015                     	;# 
   407     0016                     	;# 
   408     0017                     	;# 
   409     0018                     	;# 
   410     0019                     	;# 
   411     001A                     	;# 
   412     001B                     	;# 
   413     001B                     	;# 
   414     001C                     	;# 
   415     001D                     	;# 
   416     001E                     	;# 
   417     001F                     	;# 
   418     0081                     	;# 
   419     0085                     	;# 
   420     0086                     	;# 
   421     0087                     	;# 
   422     0088                     	;# 
   423     0089                     	;# 
   424     008C                     	;# 
   425     008D                     	;# 
   426     008E                     	;# 
   427     0091                     	;# 
   428     0092                     	;# 
   429     0093                     	;# 
   430     0094                     	;# 
   431     0098                     	;# 
   432     0099                     	;# 
   433     009C                     	;# 
   434     009D                     	;# 
   435     009E                     	;# 
   436     009F                     	;# 
   437     010C                     	;# 
   438     010D                     	;# 
   439     010E                     	;# 
   440     010F                     	;# 
   441     018C                     	;# 
   442     018D                     	;# 
   443     0000                     	;# 
   444     0001                     	;# 
   445     0002                     	;# 
   446     0003                     	;# 
   447     0004                     	;# 
   448     0005                     	;# 
   449     0006                     	;# 
   450     0007                     	;# 
   451     0008                     	;# 
   452     0009                     	;# 
   453     000A                     	;# 
   454     000B                     	;# 
   455     000C                     	;# 
   456     000D                     	;# 
   457     000E                     	;# 
   458     000E                     	;# 
   459     000F                     	;# 
   460     0010                     	;# 
   461     0011                     	;# 
   462     0012                     	;# 
   463     0013                     	;# 
   464     0014                     	;# 
   465     0015                     	;# 
   466     0015                     	;# 
   467     0016                     	;# 
   468     0017                     	;# 
   469     0018                     	;# 
   470     0019                     	;# 
   471     001A                     	;# 
   472     001B                     	;# 
   473     001B                     	;# 
   474     001C                     	;# 
   475     001D                     	;# 
   476     001E                     	;# 
   477     001F                     	;# 
   478     0081                     	;# 
   479     0085                     	;# 
   480     0086                     	;# 
   481     0087                     	;# 
   482     0088                     	;# 
   483     0089                     	;# 
   484     008C                     	;# 
   485     008D                     	;# 
   486     008E                     	;# 
   487     0091                     	;# 
   488     0092                     	;# 
   489     0093                     	;# 
   490     0094                     	;# 
   491     0098                     	;# 
   492     0099                     	;# 
   493     009C                     	;# 
   494     009D                     	;# 
   495     009E                     	;# 
   496     009F                     	;# 
   497     010C                     	;# 
   498     010D                     	;# 
   499     010E                     	;# 
   500     010F                     	;# 
   501     018C                     	;# 
   502     018D                     	;# 
   503     0000                     	;# 
   504     0001                     	;# 
   505     0002                     	;# 
   506     0003                     	;# 
   507     0004                     	;# 
   508     0005                     	;# 
   509     0006                     	;# 
   510     0007                     	;# 
   511     0008                     	;# 
   512     0009                     	;# 
   513     000A                     	;# 
   514     000B                     	;# 
   515     000C                     	;# 
   516     000D                     	;# 
   517     000E                     	;# 
   518     000E                     	;# 
   519     000F                     	;# 
   520     0010                     	;# 
   521     0011                     	;# 
   522     0012                     	;# 
   523     0013                     	;# 
   524     0014                     	;# 
   525     0015                     	;# 
   526     0015                     	;# 
   527     0016                     	;# 
   528     0017                     	;# 
   529     0018                     	;# 
   530     0019                     	;# 
   531     001A                     	;# 
   532     001B                     	;# 
   533     001B                     	;# 
   534     001C                     	;# 
   535     001D                     	;# 
   536     001E                     	;# 
   537     001F                     	;# 
   538     0081                     	;# 
   539     0085                     	;# 
   540     0086                     	;# 
   541     0087                     	;# 
   542     0088                     	;# 
   543     0089                     	;# 
   544     008C                     	;# 
   545     008D                     	;# 
   546     008E                     	;# 
   547     0091                     	;# 
   548     0092                     	;# 
   549     0093                     	;# 
   550     0094                     	;# 
   551     0098                     	;# 
   552     0099                     	;# 
   553     009C                     	;# 
   554     009D                     	;# 
   555     009E                     	;# 
   556     009F                     	;# 
   557     010C                     	;# 
   558     010D                     	;# 
   559     010E                     	;# 
   560     010F                     	;# 
   561     018C                     	;# 
   562     018D                     	;# 
   563                           
   564                           	psect	idataBANK0
   565     17BF                     __pidataBANK0:
   566                           
   567                           ;initializer for _clk_time
   568     17BF  34BD               	retlw	189
   569     17C0  3437               	retlw	55
   570     17C1  3486               	retlw	134
   571     17C2  3436               	retlw	54
   572                           
   573                           ;initializer for _rising_edge
   574     17C3  3401               	retlw	1
   575                           
   576                           ;initializer for _counter
   577     17C4  3409               	retlw	9
   578                           
   579                           	psect	idataBANK1
   580     0843                     __pidataBANK1:
   581                           
   582                           ;initializer for _port_registers
   583     0843  3405               	retlw	5
   584     0844  3400               	retlw	0
   585     0845  3406               	retlw	6
   586     0846  3400               	retlw	0
   587     0847  3407               	retlw	7
   588     0848  3400               	retlw	0
   589     0849  3408               	retlw	8
   590     084A  3400               	retlw	0
   591     084B  3409               	retlw	9
   592     084C  3400               	retlw	0
   593                           
   594                           ;initializer for _tris_registers
   595     084D  3485               	retlw	133
   596     084E  3400               	retlw	0
   597     084F  3486               	retlw	134
   598     0850  3400               	retlw	0
   599     0851  3487               	retlw	135
   600     0852  3400               	retlw	0
   601     0853  3488               	retlw	136
   602     0854  3400               	retlw	0
   603     0855  3489               	retlw	137
   604     0856  3400               	retlw	0
   605                           
   606                           ;initializer for _read_once
   607     0857  3401               	retlw	1
   608                           
   609                           ;initializer for _tmr1
   610     0858  3407               	retlw	low (fp__timer1_isr-i1fpbase)
   611     0859  3478               	retlw	120
   612     085A  34EC               	retlw	236
   613     085B  3430               	retlw	48
   614                           
   615                           ;initializer for _ccp2
   616     085C  3404               	retlw	low (fp__ccp2_isr-i1fpbase)
   617     085D  340A               	retlw	10
   618                           
   619                           ;initializer for _ccp1
   620     085E  3401               	retlw	low (fp__ccp1_isr-i1fpbase)
   621     085F  3405               	retlw	5
   622                           
   623                           ;initializer for _servo
   624     0860  3403               	retlw	3
   625                           
   626                           ;initializer for _trigger
   627     0861  340A               	retlw	10
   628     001B                     _CCPR2	set	27
   629     0015                     _CCPR1	set	21
   630     000E                     _TMR1L	set	14
   631     000F                     _TMR1H	set	15
   632     0010                     _T1CONbits	set	16
   633     000B                     _INTCONbits	set	11
   634     000D                     _PIR2bits	set	13
   635     001D                     _CCP2CONbits	set	29
   636     000C                     _PIR1bits	set	12
   637     0017                     _CCP1CONbits	set	23
   638     0009                     _PORTE	set	9
   639     0008                     _PORTD	set	8
   640     0007                     _PORTC	set	7
   641     0006                     _PORTB	set	6
   642     0005                     _PORTA	set	5
   643     008D                     _PIE2bits	set	141
   644     0087                     _TRISCbits	set	135
   645     008C                     _PIE1bits	set	140
   646     0089                     _TRISE	set	137
   647     0088                     _TRISD	set	136
   648     0087                     _TRISC	set	135
   649     0086                     _TRISB	set	134
   650     0085                     _TRISA	set	133
   651                           
   652                           	psect	cinit
   653     0015                     start_initialization:	
   654                           ; #config settings
   655                           
   656     0015                     __initialization:
   657                           
   658                           ; Initialize objects allocated to BANK1
   659     0015  1383               	bcf	3,7	;select IRP bank0
   660     0016  30BF               	movlw	low (__pdataBANK1+31)
   661     0017  00FD               	movwf	btemp+-1
   662     0018  3008               	movlw	high __pidataBANK1
   663     0019  00FE               	movwf	btemp
   664     001A  3043               	movlw	low __pidataBANK1
   665     001B  00FF               	movwf	btemp+1
   666     001C  30A0               	movlw	low __pdataBANK1
   667     001D  0084               	movwf	4
   668     001E  120A  158A  2017  120A  118A  	fcall	init_ram0
   669                           
   670                           ; Initialize objects allocated to BANK0
   671     0023  306D               	movlw	low (__pdataBANK0+6)
   672     0024  00FD               	movwf	btemp+-1
   673     0025  3017               	movlw	high __pidataBANK0
   674     0026  00FE               	movwf	btemp
   675     0027  30BF               	movlw	low __pidataBANK0
   676     0028  00FF               	movwf	btemp+1
   677     0029  3067               	movlw	low __pdataBANK0
   678     002A  0084               	movwf	4
   679     002B  120A  158A  2017  120A  118A  	fcall	init_ram0
   680                           
   681                           ; Clear objects allocated to BANK1
   682     0030  1683               	bsf	3,5	;RP0=1, select bank1
   683     0031  1303               	bcf	3,6	;RP1=0, select bank1
   684     0032  01CF               	clrf	__pbssBANK1& (0+127)
   685     0033  01D0               	clrf	(__pbssBANK1+1)& (0+127)
   686     0034  01D1               	clrf	(__pbssBANK1+2)& (0+127)
   687     0035  01D2               	clrf	(__pbssBANK1+3)& (0+127)
   688     0036  01D3               	clrf	(__pbssBANK1+4)& (0+127)
   689     0037  01D4               	clrf	(__pbssBANK1+5)& (0+127)
   690     0038  01D5               	clrf	(__pbssBANK1+6)& (0+127)
   691     0039  01D6               	clrf	(__pbssBANK1+7)& (0+127)
   692     003A  01D7               	clrf	(__pbssBANK1+8)& (0+127)
   693     003B  01D8               	clrf	(__pbssBANK1+9)& (0+127)
   694     003C  01D9               	clrf	(__pbssBANK1+10)& (0+127)
   695     003D  01DA               	clrf	(__pbssBANK1+11)& (0+127)
   696     003E  01DB               	clrf	(__pbssBANK1+12)& (0+127)
   697     003F  01DC               	clrf	(__pbssBANK1+13)& (0+127)
   698                           
   699                           ; Clear objects allocated to BANK0
   700     0040  1283               	bcf	3,5	;RP0=0, select bank0
   701     0041  1303               	bcf	3,6	;RP1=0, select bank0
   702     0042  01E0               	clrf	__pbssBANK0& (0+127)
   703     0043  01E1               	clrf	(__pbssBANK0+1)& (0+127)
   704     0044  01E2               	clrf	(__pbssBANK0+2)& (0+127)
   705     0045  01E3               	clrf	(__pbssBANK0+3)& (0+127)
   706     0046  01E4               	clrf	(__pbssBANK0+4)& (0+127)
   707     0047  01E5               	clrf	(__pbssBANK0+5)& (0+127)
   708     0048  01E6               	clrf	(__pbssBANK0+6)& (0+127)
   709     0049                     end_of_initialization:	
   710                           ;End of C runtime variable initialization code
   711                           
   712     0049                     __end_of__initialization:
   713     0049  0183               	clrf	3
   714     004A  120A  158A  2B91   	ljmp	_main	;jump to C main() function
   715                           
   716                           	psect	bssBANK0
   717     0060                     __pbssBANK0:
   718     0060                     _overflow:
   719     0060                     	ds	2
   720     0062                     _end:
   721     0062                     	ds	2
   722     0064                     _start:
   723     0064                     	ds	2
   724     0066                     _ccp1_InterruptHandler:
   725     0066                     	ds	1
   726                           
   727                           	psect	dataBANK0
   728     0067                     __pdataBANK0:
   729     0067                     _clk_time:
   730     0067                     	ds	4
   731     006B                     _rising_edge:
   732     006B                     	ds	1
   733     006C                     _counter:
   734     006C                     	ds	1
   735                           
   736                           	psect	bssBANK1
   737     00CF                     __pbssBANK1:
   738     00CF                     _distance:
   739     00CF                     	ds	4
   740     00D3                     _time:
   741     00D3                     	ds	4
   742     00D7                     _preload_timer1:
   743     00D7                     	ds	2
   744     00D9                     _object_exist:
   745     00D9                     	ds	1
   746     00DA                     _open_bin:
   747     00DA                     	ds	1
   748     00DB                     _TIMER1_InterruptHandler:
   749     00DB                     	ds	1
   750     00DC                     _ccp2_InterruptHandler:
   751     00DC                     	ds	1
   752                           
   753                           	psect	dataBANK1
   754     00A0                     __pdataBANK1:
   755     00A0                     _port_registers:
   756     00A0                     	ds	10
   757     00AA                     _tris_registers:
   758     00AA                     	ds	10
   759     00B4                     _read_once:
   760     00B4                     	ds	1
   761     00B5                     _tmr1:
   762     00B5                     	ds	4
   763     00B9                     _ccp2:
   764     00B9                     	ds	2
   765     00BB                     _ccp1:
   766     00BB                     	ds	2
   767     00BD                     _servo:
   768     00BD                     	ds	1
   769     00BE                     _trigger:
   770     00BE                     	ds	1
   771                           
   772                           	psect	inittext
   773     0813                     init_fetch0:	
   774                           ;	Called with low address in FSR and high address in W
   775                           
   776     0813  087E               	movf	btemp,w
   777     0814  008A               	movwf	10
   778     0815  087F               	movf	btemp+1,w
   779     0816  0082               	movwf	2
   780     0817                     init_ram0:	
   781                           ;Called with:
   782                           ;	high address of idata address in btemp 
   783                           ;	low address of idata address in btemp+1 
   784                           ;	low address of data in FSR
   785                           ;	high address + 1 of data in btemp-1
   786                           
   787     0817  120A  158A  2013  120A  158A  	fcall	init_fetch0
   788     081C  0080               	movwf	0
   789     081D  0A84               	incf	4,f
   790     081E  0804               	movf	4,w
   791     081F  067D               	xorwf	btemp+-1,w
   792     0820  1903               	btfsc	3,2
   793     0821  3400               	retlw	0
   794     0822  0AFF               	incf	btemp+1,f
   795     0823  1903               	btfsc	3,2
   796     0824  0AFE               	incf	btemp,f
   797     0825  2817               	goto	init_ram0
   798                           
   799                           	psect	cstackBANK1
   800     00BF                     __pcstackBANK1:
   801     00BF                     ?___flge:
   802     00BF                     ??_all_interrupt_disable:	
   803                           ; 1 bit 
   804                           
   805     00BF                     ??_all_interrupt_enable:	
   806                           ; 1 bytes @ 0x0
   807                           
   808     00BF                     ?_ccp1_init:	
   809                           ; 1 bytes @ 0x0
   810                           
   811     00BF                     ??_ccp1_init:	
   812                           ; 1 bytes @ 0x0
   813                           
   814     00BF                     ?_ccp2_init:	
   815                           ; 1 bytes @ 0x0
   816                           
   817     00BF                     ??_ccp2_init:	
   818                           ; 1 bytes @ 0x0
   819                           
   820     00BF                     ?_ccp2_register_write:	
   821                           ; 1 bytes @ 0x0
   822                           
   823     00BF                     ?_gpio_pin_direction_initialize:	
   824                           ; 1 bytes @ 0x0
   825                           
   826     00BF                     ??_gpio_pin_direction_initialize:	
   827                           ; 1 bytes @ 0x0
   828                           
   829     00BF                     ?_gpio_pin_write_logic:	
   830                           ; 1 bytes @ 0x0
   831                           
   832     00BF                     ?_timer1_inti:	
   833                           ; 1 bytes @ 0x0
   834                           
   835     00BF                     ??_timer1_inti:	
   836                           ; 1 bytes @ 0x0
   837                           
   838     00BF                     gpio_pin_write_logic@logic:	
   839                           ; 1 bytes @ 0x0
   840                           
   841     00BF                     ccp2_register_write@value:	
   842                           ; 1 bytes @ 0x0
   843                           
   844     00BF                     ___flge@ff1:	
   845                           ; 2 bytes @ 0x0
   846                           
   847                           
   848                           ; 4 bytes @ 0x0
   849     00BF                     	ds	1
   850     00C0                     ??_gpio_pin_write_logic:
   851     00C0                     ccp1_init@ccp1_obj:	
   852                           ; 1 bytes @ 0x1
   853                           
   854     00C0                     ccp2_init@ccp2_obj:	
   855                           ; 1 bytes @ 0x1
   856                           
   857                           
   858                           ; 1 bytes @ 0x1
   859     00C0                     	ds	1
   860     00C1                     ??_servo0:
   861     00C1                     ??_servo90:	
   862                           ; 1 bytes @ 0x2
   863                           
   864     00C1                     ??_ccp2_register_write:	
   865                           ; 1 bytes @ 0x2
   866                           
   867     00C1                     timer1_inti@tmr1_obj:	
   868                           ; 1 bytes @ 0x2
   869                           
   870                           
   871                           ; 1 bytes @ 0x2
   872     00C1                     	ds	2
   873     00C3                     ___flge@ff2:
   874                           
   875                           ; 4 bytes @ 0x4
   876     00C3                     	ds	1
   877     00C4                     gpio_pin_direction_initialize@ret:
   878                           
   879                           ; 1 bytes @ 0x5
   880     00C4                     	ds	1
   881     00C5                     gpio_pin_direction_initialize@pin_config:
   882     00C5                     gpio_pin_write_logic@ret:	
   883                           ; 1 bytes @ 0x6
   884                           
   885                           
   886                           ; 1 bytes @ 0x6
   887     00C5                     	ds	1
   888     00C6                     gpio_pin_write_logic@pin_config:
   889                           
   890                           ; 1 bytes @ 0x7
   891     00C6                     	ds	1
   892     00C7                     ??_gpio_pin_initialize:
   893     00C7                     ??___flge:	
   894                           ; 1 bytes @ 0x8
   895                           
   896                           
   897                           ; 1 bytes @ 0x8
   898     00C7                     	ds	1
   899     00C8                     ?_gpio_pin_initialize:
   900                           
   901                           ; 1 bytes @ 0x9
   902     00C8                     	ds	1
   903     00C9                     gpio_pin_initialize@ret:
   904                           
   905                           ; 1 bytes @ 0xA
   906     00C9                     	ds	1
   907     00CA                     gpio_pin_initialize@pin_config:
   908                           
   909                           ; 1 bytes @ 0xB
   910     00CA                     	ds	1
   911     00CB                     ?_sensor_initialize:
   912     00CB                     ?_servo_initialize:	
   913                           ; 1 bytes @ 0xC
   914                           
   915     00CB                     sensor_initialize@ccp_select:	
   916                           ; 1 bytes @ 0xC
   917                           
   918     00CB                     servo_initialize@ccp_select:	
   919                           ; 1 bytes @ 0xC
   920                           
   921                           
   922                           ; 1 bytes @ 0xC
   923     00CB                     	ds	1
   924     00CC                     ??_sensor_initialize:
   925     00CC                     ??_servo_initialize:	
   926                           ; 1 bytes @ 0xD
   927                           
   928                           
   929                           ; 1 bytes @ 0xD
   930     00CC                     	ds	2
   931     00CE                     sensor_initialize@trigger_pin:
   932     00CE                     servo_initialize@servo_pin:	
   933                           ; 1 bytes @ 0xF
   934                           
   935                           
   936                           ; 1 bytes @ 0xF
   937     00CE                     	ds	1
   938     00CF                     ??_main:
   939                           
   940                           	psect	cstackCOMMON
   941     0070                     __pcstackCOMMON:	
   942                           ; 1 bytes @ 0x10
   943                           
   944     0070                     ?_all_interrupt_disable:
   945     0070                     ?_all_interrupt_enable:	
   946                           ; 1 bytes @ 0x0
   947                           
   948     0070                     ?_TIMER1_ISR:	
   949                           ; 1 bytes @ 0x0
   950                           
   951     0070                     ?_servo0:	
   952                           ; 1 bytes @ 0x0
   953                           
   954     0070                     ?_servo90:	
   955                           ; 1 bytes @ 0x0
   956                           
   957     0070                     ?_ccp1_change_mode:	
   958                           ; 1 bytes @ 0x0
   959                           
   960     0070                     ??_ccp1_change_mode:	
   961                           ; 1 bytes @ 0x0
   962                           
   963     0070                     ?_CCP1_ISR:	
   964                           ; 1 bytes @ 0x0
   965                           
   966     0070                     ?_CCP2_ISR:	
   967                           ; 1 bytes @ 0x0
   968                           
   969     0070                     ?_InterruptManager:	
   970                           ; 1 bytes @ 0x0
   971                           
   972     0070                     ?_timer1_isr:	
   973                           ; 1 bytes @ 0x0
   974                           
   975     0070                     ?_ccp2_isr:	
   976                           ; 1 bytes @ 0x0
   977                           
   978     0070                     ?_ccp1_isr:	
   979                           ; 1 bytes @ 0x0
   980                           
   981     0070                     ?i1_gpio_pin_write_logic:	
   982                           ; 1 bytes @ 0x0
   983                           
   984     0070                     ?__Umul8_16:	
   985                           ; 1 bytes @ 0x0
   986                           
   987     0070                     ?_main:	
   988                           ; 2 bytes @ 0x0
   989                           
   990     0070                     ?___xxtofl:	
   991                           ; 2 bytes @ 0x0
   992                           
   993     0070                     ccp1_change_mode@mode:	
   994                           ; 4 bytes @ 0x0
   995                           
   996     0070                     __Umul8_16@multiplicand:	
   997                           ; 1 bytes @ 0x0
   998                           
   999     0070                     i1gpio_pin_write_logic@logic:	
  1000                           ; 1 bytes @ 0x0
  1001                           
  1002     0070                     ___xxtofl@val:	
  1003                           ; 1 bytes @ 0x0
  1004                           
  1005                           
  1006                           ; 4 bytes @ 0x0
  1007     0070                     	ds	1
  1008     0071                     ??i1_gpio_pin_write_logic:
  1009                           
  1010                           ; 1 bytes @ 0x1
  1011     0071                     	ds	1
  1012     0072                     ??__Umul8_16:
  1013                           
  1014                           ; 1 bytes @ 0x2
  1015     0072                     	ds	2
  1016     0074                     ??___xxtofl:
  1017     0074                     __Umul8_16@product:	
  1018                           ; 1 bytes @ 0x4
  1019                           
  1020                           
  1021                           ; 2 bytes @ 0x4
  1022     0074                     	ds	2
  1023     0076                     i1gpio_pin_write_logic@pin_config:
  1024     0076                     __Umul8_16@word_mpld:	
  1025                           ; 1 bytes @ 0x6
  1026                           
  1027                           
  1028                           ; 2 bytes @ 0x6
  1029     0076                     	ds	1
  1030     0077                     ??_CCP2_ISR:
  1031     0077                     ??_timer1_isr:	
  1032                           ; 1 bytes @ 0x7
  1033                           
  1034     0077                     ??_ccp2_isr:	
  1035                           ; 1 bytes @ 0x7
  1036                           
  1037                           
  1038                           ; 1 bytes @ 0x7
  1039     0077                     	ds	1
  1040     0078                     ??_TIMER1_ISR:
  1041     0078                     __Umul8_16@multiplier:	
  1042                           ; 1 bytes @ 0x8
  1043                           
  1044     0078                     ___xxtofl@sign:	
  1045                           ; 1 bytes @ 0x8
  1046                           
  1047                           
  1048                           ; 1 bytes @ 0x8
  1049     0078                     	ds	1
  1050     0079                     ___xxtofl@exp:
  1051                           
  1052                           ; 1 bytes @ 0x9
  1053     0079                     	ds	1
  1054     007A                     ___xxtofl@arg:
  1055                           
  1056                           ; 4 bytes @ 0xA
  1057     007A                     	ds	4
  1058     007E                     ??_CCP1_ISR:
  1059                           
  1060                           	psect	cstackBANK0
  1061     0020                     __pcstackBANK0:	
  1062                           ; 1 bytes @ 0xE
  1063                           
  1064     0020                     ?___flmul:
  1065     0020                     ___flmul@b:	
  1066                           ; 4 bytes @ 0x0
  1067                           
  1068                           
  1069                           ; 4 bytes @ 0x0
  1070     0020                     	ds	4
  1071     0024                     ___flmul@a:
  1072                           
  1073                           ; 4 bytes @ 0x4
  1074     0024                     	ds	4
  1075     0028                     ??___flmul:
  1076                           
  1077                           ; 1 bytes @ 0x8
  1078     0028                     	ds	5
  1079     002D                     ___flmul@sign:
  1080                           
  1081                           ; 1 bytes @ 0xD
  1082     002D                     	ds	1
  1083     002E                     ___flmul@grs:
  1084                           
  1085                           ; 4 bytes @ 0xE
  1086     002E                     	ds	4
  1087     0032                     ___flmul@aexp:
  1088                           
  1089                           ; 1 bytes @ 0x12
  1090     0032                     	ds	1
  1091     0033                     ___flmul@bexp:
  1092                           
  1093                           ; 1 bytes @ 0x13
  1094     0033                     	ds	1
  1095     0034                     ___flmul@prod:
  1096                           
  1097                           ; 4 bytes @ 0x14
  1098     0034                     	ds	4
  1099     0038                     ___flmul@temp:
  1100                           
  1101                           ; 2 bytes @ 0x18
  1102     0038                     	ds	2
  1103     003A                     ?___fladd:
  1104     003A                     ?___fldiv:	
  1105                           ; 4 bytes @ 0x1A
  1106                           
  1107     003A                     ___fladd@b:	
  1108                           ; 4 bytes @ 0x1A
  1109                           
  1110     003A                     ___fldiv@a:	
  1111                           ; 4 bytes @ 0x1A
  1112                           
  1113                           
  1114                           ; 4 bytes @ 0x1A
  1115     003A                     	ds	4
  1116     003E                     ___fladd@a:
  1117     003E                     ___fldiv@b:	
  1118                           ; 4 bytes @ 0x1E
  1119                           
  1120                           
  1121                           ; 4 bytes @ 0x1E
  1122     003E                     	ds	4
  1123     0042                     ??___fladd:
  1124     0042                     ??___fldiv:	
  1125                           ; 1 bytes @ 0x22
  1126                           
  1127                           
  1128                           ; 1 bytes @ 0x22
  1129     0042                     	ds	5
  1130     0047                     ___fldiv@rem:
  1131                           
  1132                           ; 4 bytes @ 0x27
  1133     0047                     	ds	3
  1134     004A                     ___fladd@signs:
  1135                           
  1136                           ; 1 bytes @ 0x2A
  1137     004A                     	ds	1
  1138     004B                     ___fladd@aexp:
  1139     004B                     ___fldiv@sign:	
  1140                           ; 1 bytes @ 0x2B
  1141                           
  1142                           
  1143                           ; 1 bytes @ 0x2B
  1144     004B                     	ds	1
  1145     004C                     ___fladd@bexp:
  1146     004C                     ___fldiv@new_exp:	
  1147                           ; 1 bytes @ 0x2C
  1148                           
  1149                           
  1150                           ; 2 bytes @ 0x2C
  1151     004C                     	ds	1
  1152     004D                     ___fladd@grs:
  1153                           
  1154                           ; 1 bytes @ 0x2D
  1155     004D                     	ds	1
  1156     004E                     ___fldiv@grs:
  1157                           
  1158                           ; 4 bytes @ 0x2E
  1159     004E                     	ds	4
  1160     0052                     ___fldiv@bexp:
  1161                           
  1162                           ; 1 bytes @ 0x32
  1163     0052                     	ds	1
  1164     0053                     ___fldiv@aexp:
  1165                           
  1166                           ; 1 bytes @ 0x33
  1167     0053                     	ds	1
  1168     0054                     ??_ccp1_isr:
  1169                           
  1170                           ; 1 bytes @ 0x34
  1171     0054                     	ds	8
  1172     005C                     ??_InterruptManager:
  1173                           
  1174                           ; 1 bytes @ 0x3C
  1175     005C                     	ds	4
  1176                           
  1177                           	psect	maintext
  1178     0B91                     __pmaintext:	
  1179 ;;
  1180 ;;Main: autosize = 0, tempsize = 0, incstack = 0, save=0
  1181 ;;
  1182 ;; *************** function _main *****************
  1183 ;; Defined at:
  1184 ;;		line 15 in file "application.c"
  1185 ;; Parameters:    Size  Location     Type
  1186 ;;		None
  1187 ;; Auto vars:     Size  Location     Type
  1188 ;;		None
  1189 ;; Return value:  Size  Location     Type
  1190 ;;                  2  324[None  ] int 
  1191 ;; Registers used:
  1192 ;;		wreg, fsr0l, fsr0h, status,2, status,0, btemp+1, pclath, cstack
  1193 ;; Tracked objects:
  1194 ;;		On entry : B00/0
  1195 ;;		On exit  : 0/0
  1196 ;;		Unchanged: 0/0
  1197 ;; Data sizes:     COMMON   BANK0   BANK1   BANK3   BANK2
  1198 ;;      Params:         0       0       0       0       0
  1199 ;;      Locals:         0       0       0       0       0
  1200 ;;      Temps:          0       0       0       0       0
  1201 ;;      Totals:         0       0       0       0       0
  1202 ;;Total ram usage:        0 bytes
  1203 ;; Hardware stack levels required when called: 8
  1204 ;; This function calls:
  1205 ;;		___flge
  1206 ;;		_sensor_initialize
  1207 ;;		_servo0
  1208 ;;		_servo90
  1209 ;;		_servo_initialize
  1210 ;;		_timer1_inti
  1211 ;; This function is called by:
  1212 ;;		Startup code after reset
  1213 ;; This function uses a non-reentrant model
  1214 ;;
  1215                           
  1216     0B91                     _main:	
  1217                           ;psect for function _main
  1218                           
  1219     0B91                     l3628:	
  1220                           ;incstack = 0
  1221                           ; Regs used in _main: [wreg-fsr0h+status,2+status,0+btemp+1+pclath+cstack]
  1222                           
  1223                           
  1224                           ;application.c: 16:     timer1_inti(&tmr1);
  1225     0B91  30B5               	movlw	(low (_tmr1| 0))& (0+255)
  1226     0B92  120A  158A  24CF  120A  158A  	fcall	_timer1_inti
  1227     0B97                     l3630:
  1228                           
  1229                           ;application.c: 17:     sensor_initialize(&trigger, CCP1);
  1230     0B97  1683               	bsf	3,5	;RP0=1, select bank1
  1231     0B98  1303               	bcf	3,6	;RP1=0, select bank1
  1232     0B99  01CB               	clrf	sensor_initialize@ccp_select^(0+128)
  1233     0B9A  30BE               	movlw	(low (_trigger| 0))& (0+255)
  1234     0B9B  120A  158A  2089  120A  158A  	fcall	_sensor_initialize
  1235     0BA0                     l3632:
  1236                           
  1237                           ;application.c: 18:     servo_initialize(&servo, CCP2);
  1238     0BA0  1683               	bsf	3,5	;RP0=1, select bank1
  1239     0BA1  1303               	bcf	3,6	;RP1=0, select bank1
  1240     0BA2  01CB               	clrf	servo_initialize@ccp_select^(0+128)
  1241     0BA3  0ACB               	incf	servo_initialize@ccp_select^(0+128),f
  1242     0BA4  30BD               	movlw	(low (_servo| 0))& (0+255)
  1243     0BA5  120A  158A  20B4  120A  158A  	fcall	_servo_initialize
  1244     0BAA                     l3634:
  1245                           
  1246                           ;application.c: 20:     servo0();
  1247     0BAA  160A  118A  27D9  120A  158A  	fcall	_servo0
  1248     0BAF                     l3636:
  1249                           
  1250                           ;application.c: 22:     {;application.c: 24:         if(object_exist)
  1251     0BAF  1683               	bsf	3,5	;RP0=1, select bank1
  1252     0BB0  1303               	bcf	3,6	;RP1=0, select bank1
  1253     0BB1  0859               	movf	_object_exist^(0+128),w
  1254     0BB2  1903               	btfsc	3,2
  1255     0BB3  2BB5               	goto	u4461
  1256     0BB4  2BB6               	goto	u4460
  1257     0BB5                     u4461:
  1258     0BB5  2C1D               	goto	l3654
  1259     0BB6                     u4460:
  1260     0BB6                     l3638:
  1261                           
  1262                           ;application.c: 25:         {;application.c: 32:             if (distance >= 3 && distan
      +                          ce <= 15 && read_once)
  1263     0BB6  0852               	movf	(_distance+3)^(0+128),w
  1264     0BB7  00C2               	movwf	(___flge@ff1+3)^(0+128)
  1265     0BB8  0851               	movf	(_distance+2)^(0+128),w
  1266     0BB9  00C1               	movwf	(___flge@ff1+2)^(0+128)
  1267     0BBA  0850               	movf	(_distance+1)^(0+128),w
  1268     0BBB  00C0               	movwf	(___flge@ff1+1)^(0+128)
  1269     0BBC  084F               	movf	_distance^(0+128),w
  1270     0BBD  00BF               	movwf	___flge@ff1^(0+128)
  1271     0BBE  3040               	movlw	64
  1272     0BBF  00C6               	movwf	(___flge@ff2+3)^(0+128)
  1273     0BC0  3040               	movlw	64
  1274     0BC1  00C5               	movwf	(___flge@ff2+2)^(0+128)
  1275     0BC2  3000               	movlw	0
  1276     0BC3  00C4               	movwf	(___flge@ff2+1)^(0+128)
  1277     0BC4  3000               	movlw	0
  1278     0BC5  00C3               	movwf	___flge@ff2^(0+128)
  1279     0BC6  120A  158A  242B  120A  158A  	fcall	___flge
  1280     0BCB  1C03               	btfss	3,0
  1281     0BCC  2BCE               	goto	u4471
  1282     0BCD  2BCF               	goto	u4470
  1283     0BCE                     u4471:
  1284     0BCE  2BFB               	goto	l3648
  1285     0BCF                     u4470:
  1286     0BCF                     l3640:
  1287     0BCF  3041               	movlw	65
  1288     0BD0  1683               	bsf	3,5	;RP0=1, select bank1
  1289     0BD1  1303               	bcf	3,6	;RP1=0, select bank1
  1290     0BD2  00C2               	movwf	(___flge@ff1+3)^(0+128)
  1291     0BD3  3070               	movlw	112
  1292     0BD4  00C1               	movwf	(___flge@ff1+2)^(0+128)
  1293     0BD5  3000               	movlw	0
  1294     0BD6  00C0               	movwf	(___flge@ff1+1)^(0+128)
  1295     0BD7  3000               	movlw	0
  1296     0BD8  00BF               	movwf	___flge@ff1^(0+128)
  1297     0BD9  0852               	movf	(_distance+3)^(0+128),w
  1298     0BDA  00C6               	movwf	(___flge@ff2+3)^(0+128)
  1299     0BDB  0851               	movf	(_distance+2)^(0+128),w
  1300     0BDC  00C5               	movwf	(___flge@ff2+2)^(0+128)
  1301     0BDD  0850               	movf	(_distance+1)^(0+128),w
  1302     0BDE  00C4               	movwf	(___flge@ff2+1)^(0+128)
  1303     0BDF  084F               	movf	_distance^(0+128),w
  1304     0BE0  00C3               	movwf	___flge@ff2^(0+128)
  1305     0BE1  120A  158A  242B  120A  158A  	fcall	___flge
  1306     0BE6  1C03               	btfss	3,0
  1307     0BE7  2BE9               	goto	u4481
  1308     0BE8  2BEA               	goto	u4480
  1309     0BE9                     u4481:
  1310     0BE9  2BFB               	goto	l3648
  1311     0BEA                     u4480:
  1312     0BEA                     l3642:
  1313     0BEA  1683               	bsf	3,5	;RP0=1, select bank1
  1314     0BEB  1303               	bcf	3,6	;RP1=0, select bank1
  1315     0BEC  0834               	movf	_read_once^(0+128),w
  1316     0BED  1903               	btfsc	3,2
  1317     0BEE  2BF0               	goto	u4491
  1318     0BEF  2BF1               	goto	u4490
  1319     0BF0                     u4491:
  1320     0BF0  2BFB               	goto	l3648
  1321     0BF1                     u4490:
  1322     0BF1                     l3644:
  1323                           
  1324                           ;application.c: 33:             {;application.c: 34:                 open_bin = !open_bi
      +                          n;
  1325     0BF1  085A               	movf	_open_bin^(0+128),w
  1326     0BF2  1903               	btfsc	3,2
  1327     0BF3  2BF5               	goto	u4501
  1328     0BF4  2BF7               	goto	u4500
  1329     0BF5                     u4501:
  1330     0BF5  3001               	movlw	1
  1331     0BF6  2BF8               	goto	u4510
  1332     0BF7                     u4500:
  1333     0BF7  3000               	movlw	0
  1334     0BF8                     u4510:
  1335     0BF8  00DA               	movwf	_open_bin^(0+128)
  1336     0BF9                     l3646:
  1337                           
  1338                           ;application.c: 35:                 read_once = 0;
  1339     0BF9  01B4               	clrf	_read_once^(0+128)
  1340                           
  1341                           ;application.c: 36:             }
  1342     0BFA  2C1A               	goto	l3652
  1343     0BFB                     l3648:
  1344     0BFB  3041               	movlw	65
  1345     0BFC  1683               	bsf	3,5	;RP0=1, select bank1
  1346     0BFD  1303               	bcf	3,6	;RP1=0, select bank1
  1347     0BFE  00C2               	movwf	(___flge@ff1+3)^(0+128)
  1348     0BFF  3070               	movlw	112
  1349     0C00  00C1               	movwf	(___flge@ff1+2)^(0+128)
  1350     0C01  3000               	movlw	0
  1351     0C02  00C0               	movwf	(___flge@ff1+1)^(0+128)
  1352     0C03  3000               	movlw	0
  1353     0C04  00BF               	movwf	___flge@ff1^(0+128)
  1354     0C05  0852               	movf	(_distance+3)^(0+128),w
  1355     0C06  00C6               	movwf	(___flge@ff2+3)^(0+128)
  1356     0C07  0851               	movf	(_distance+2)^(0+128),w
  1357     0C08  00C5               	movwf	(___flge@ff2+2)^(0+128)
  1358     0C09  0850               	movf	(_distance+1)^(0+128),w
  1359     0C0A  00C4               	movwf	(___flge@ff2+1)^(0+128)
  1360     0C0B  084F               	movf	_distance^(0+128),w
  1361     0C0C  00C3               	movwf	___flge@ff2^(0+128)
  1362     0C0D  120A  158A  242B  120A  158A  	fcall	___flge
  1363     0C12  1803               	btfsc	3,0
  1364     0C13  2C15               	goto	u4521
  1365     0C14  2C16               	goto	u4520
  1366     0C15                     u4521:
  1367     0C15  2C1A               	goto	l3652
  1368     0C16                     u4520:
  1369     0C16                     l3650:
  1370                           
  1371                           ;application.c: 39:             {;application.c: 40:                 read_once = 1;
  1372     0C16  1683               	bsf	3,5	;RP0=1, select bank1
  1373     0C17  1303               	bcf	3,6	;RP1=0, select bank1
  1374     0C18  01B4               	clrf	_read_once^(0+128)
  1375     0C19  0AB4               	incf	_read_once^(0+128),f
  1376     0C1A                     l3652:
  1377                           
  1378                           ;application.c: 42:             object_exist = 0;
  1379     0C1A  1683               	bsf	3,5	;RP0=1, select bank1
  1380     0C1B  1303               	bcf	3,6	;RP1=0, select bank1
  1381     0C1C  01D9               	clrf	_object_exist^(0+128)
  1382     0C1D                     l3654:
  1383                           
  1384                           ;application.c: 47:        if(open_bin)
  1385     0C1D  085A               	movf	_open_bin^(0+128),w
  1386     0C1E  1903               	btfsc	3,2
  1387     0C1F  2C21               	goto	u4531
  1388     0C20  2C22               	goto	u4530
  1389     0C21                     u4531:
  1390     0C21  2BAA               	goto	l3634
  1391     0C22                     u4530:
  1392     0C22                     l3656:
  1393                           
  1394                           ;application.c: 48:         {;application.c: 49:             servo90();
  1395     0C22  160A  118A  27E5  120A  158A  	fcall	_servo90
  1396                           
  1397                           ;application.c: 50:         }
  1398     0C27  2BAF               	goto	l3636
  1399     0C28  120A  118A  2812   	ljmp	start
  1400     0C2B                     __end_of_main:
  1401                           
  1402                           	psect	text1
  1403     0CCF                     __ptext1:	
  1404 ;; *************** function _timer1_inti *****************
  1405 ;; Defined at:
  1406 ;;		line 6 in file "MCAL_Layer/Timer/hal_Timer.c"
  1407 ;; Parameters:    Size  Location     Type
  1408 ;;  tmr1_obj        1    wreg     PTR struct .
  1409 ;;		 -> tmr1(4), 
  1410 ;; Auto vars:     Size  Location     Type
  1411 ;;  tmr1_obj        1    2[BANK1 ] PTR struct .
  1412 ;;		 -> tmr1(4), 
  1413 ;;  ret             1    0        unsigned char 
  1414 ;; Return value:  Size  Location     Type
  1415 ;;                  1    wreg      unsigned char 
  1416 ;; Registers used:
  1417 ;;		wreg, fsr0l, fsr0h, status,2, status,0, pclath, cstack
  1418 ;; Tracked objects:
  1419 ;;		On entry : 0/0
  1420 ;;		On exit  : 0/0
  1421 ;;		Unchanged: 0/0
  1422 ;; Data sizes:     COMMON   BANK0   BANK1   BANK3   BANK2
  1423 ;;      Params:         0       0       0       0       0
  1424 ;;      Locals:         0       0       1       0       0
  1425 ;;      Temps:          0       0       2       0       0
  1426 ;;      Totals:         0       0       3       0       0
  1427 ;;Total ram usage:        3 bytes
  1428 ;; Hardware stack levels used: 1
  1429 ;; Hardware stack levels required when called: 6
  1430 ;; This function calls:
  1431 ;;		_all_interrupt_disable
  1432 ;;		_all_interrupt_enable
  1433 ;; This function is called by:
  1434 ;;		_main
  1435 ;; This function uses a non-reentrant model
  1436 ;;
  1437                           
  1438     0CCF                     _timer1_inti:	
  1439                           ;psect for function _timer1_inti
  1440                           
  1441                           
  1442                           ;incstack = 0
  1443                           ; Regs used in _timer1_inti: [wreg-fsr0h+status,2+status,0+pclath+cstack]
  1444                           ;timer1_inti@tmr1_obj stored from wreg
  1445     0CCF  1683               	bsf	3,5	;RP0=1, select bank1
  1446     0CD0  1303               	bcf	3,6	;RP1=0, select bank1
  1447     0CD1  00C1               	movwf	timer1_inti@tmr1_obj^(0+128)
  1448     0CD2                     l3520:
  1449     0CD2                     l3522:
  1450                           
  1451                           ;MCAL_Layer/Timer/hal_Timer.c: 9:     if(((void*)0) == tmr1_obj)
  1452     0CD2  0841               	movf	timer1_inti@tmr1_obj^(0+128),w
  1453     0CD3  1D03               	btfss	3,2
  1454     0CD4  2CD6               	goto	u4331
  1455     0CD5  2CD7               	goto	u4330
  1456     0CD6                     u4331:
  1457     0CD6  2CD8               	goto	l227
  1458     0CD7                     u4330:
  1459     0CD7                     l3524:
  1460                           
  1461                           ;MCAL_Layer/Timer/hal_Timer.c: 12:     }
  1462     0CD7  2D78               	goto	l241
  1463     0CD8                     l227:	
  1464                           ;MCAL_Layer/Timer/hal_Timer.c: 13:     else
  1465                           
  1466                           
  1467                           ;MCAL_Layer/Timer/hal_Timer.c: 17:         (T1CONbits.TMR1ON = 0);
  1468     0CD8  1283               	bcf	3,5	;RP0=0, select bank0
  1469     0CD9  1303               	bcf	3,6	;RP1=0, select bank0
  1470     0CDA  1010               	bcf	16,0	;volatile
  1471     0CDB                     l3526:
  1472                           
  1473                           ;MCAL_Layer/Timer/hal_Timer.c: 19:         if(0x00 == tmr1_obj->timer_mode)
  1474     0CDB  1683               	bsf	3,5	;RP0=1, select bank1
  1475     0CDC  1303               	bcf	3,6	;RP1=0, select bank1
  1476     0CDD  0841               	movf	timer1_inti@tmr1_obj^(0+128),w
  1477     0CDE  3E03               	addlw	3
  1478     0CDF  0084               	movwf	4
  1479     0CE0  1383               	bcf	3,7	;select IRP bank0
  1480     0CE1  0800               	movf	0,w
  1481     0CE2  3903               	andlw	3
  1482     0CE3  3A00               	xorlw	0
  1483     0CE4  1D03               	skipz
  1484     0CE5  2CE7               	goto	u4341
  1485     0CE6  2CE8               	goto	u4340
  1486     0CE7                     u4341:
  1487     0CE7  2CEC               	goto	l3530
  1488     0CE8                     u4340:
  1489     0CE8                     l3528:
  1490                           
  1491                           ;MCAL_Layer/Timer/hal_Timer.c: 20:             (T1CONbits.TMR1CS = 0);
  1492     0CE8  1283               	bcf	3,5	;RP0=0, select bank0
  1493     0CE9  1303               	bcf	3,6	;RP1=0, select bank0
  1494     0CEA  1090               	bcf	16,1	;volatile
  1495     0CEB  2D29               	goto	l3556
  1496     0CEC                     l3530:
  1497     0CEC  0841               	movf	timer1_inti@tmr1_obj^(0+128),w
  1498     0CED  3E03               	addlw	3
  1499     0CEE  0084               	movwf	4
  1500     0CEF  0800               	movf	0,w
  1501     0CF0  3903               	andlw	3
  1502     0CF1  3A01               	xorlw	1
  1503     0CF2  1D03               	skipz
  1504     0CF3  2CF5               	goto	u4351
  1505     0CF4  2CF6               	goto	u4350
  1506     0CF5                     u4351:
  1507     0CF5  2D29               	goto	l3552
  1508     0CF6                     u4350:
  1509     0CF6                     l3532:
  1510                           
  1511                           ;MCAL_Layer/Timer/hal_Timer.c: 22:         {;MCAL_Layer/Timer/hal_Timer.c: 23:          
      +                             (T1CONbits.TMR1CS = 1);
  1512     0CF6  1283               	bcf	3,5	;RP0=0, select bank0
  1513     0CF7  1303               	bcf	3,6	;RP1=0, select bank0
  1514     0CF8  1490               	bsf	16,1	;volatile
  1515     0CF9                     l3534:
  1516                           
  1517                           ;MCAL_Layer/Timer/hal_Timer.c: 25:             if (0x01 == tmr1_obj->timer1_oscilator)
  1518     0CF9  1683               	bsf	3,5	;RP0=1, select bank1
  1519     0CFA  1303               	bcf	3,6	;RP1=0, select bank1
  1520     0CFB  0841               	movf	timer1_inti@tmr1_obj^(0+128),w
  1521     0CFC  3E03               	addlw	3
  1522     0CFD  0084               	movwf	4
  1523     0CFE  1D00               	btfss	0,2
  1524     0CFF  2D01               	goto	u4361
  1525     0D00  2D02               	goto	u4360
  1526     0D01                     u4361:
  1527     0D01  2D06               	goto	l3538
  1528     0D02                     u4360:
  1529     0D02                     l3536:
  1530                           
  1531                           ;MCAL_Layer/Timer/hal_Timer.c: 26:                 (T1CONbits.T1OSCEN = 1);
  1532     0D02  1283               	bcf	3,5	;RP0=0, select bank0
  1533     0D03  1303               	bcf	3,6	;RP1=0, select bank0
  1534     0D04  1590               	bsf	16,3	;volatile
  1535     0D05  2D11               	goto	l3544
  1536     0D06                     l3538:
  1537     0D06  0841               	movf	timer1_inti@tmr1_obj^(0+128),w
  1538     0D07  3E03               	addlw	3
  1539     0D08  0084               	movwf	4
  1540     0D09  1900               	btfsc	0,2
  1541     0D0A  2D0C               	goto	u4371
  1542     0D0B  2D0D               	goto	u4370
  1543     0D0C                     u4371:
  1544     0D0C  2D11               	goto	l3542
  1545     0D0D                     u4370:
  1546     0D0D                     l3540:
  1547                           
  1548                           ;MCAL_Layer/Timer/hal_Timer.c: 28:                 (T1CONbits.T1OSCEN = 0);
  1549     0D0D  1283               	bcf	3,5	;RP0=0, select bank0
  1550     0D0E  1303               	bcf	3,6	;RP1=0, select bank0
  1551     0D0F  1190               	bcf	16,3	;volatile
  1552     0D10  2D11               	goto	l3544
  1553     0D11                     l3542:
  1554     0D11                     l3544:
  1555                           
  1556                           ;MCAL_Layer/Timer/hal_Timer.c: 32:             if (0x01 == tmr1_obj->extclk_sync)
  1557     0D11  1683               	bsf	3,5	;RP0=1, select bank1
  1558     0D12  1303               	bcf	3,6	;RP1=0, select bank1
  1559     0D13  0841               	movf	timer1_inti@tmr1_obj^(0+128),w
  1560     0D14  3E03               	addlw	3
  1561     0D15  0084               	movwf	4
  1562     0D16  1D80               	btfss	0,3
  1563     0D17  2D19               	goto	u4381
  1564     0D18  2D1A               	goto	u4380
  1565     0D19                     u4381:
  1566     0D19  2D1E               	goto	l3548
  1567     0D1A                     u4380:
  1568     0D1A                     l3546:
  1569                           
  1570                           ;MCAL_Layer/Timer/hal_Timer.c: 33:                 (T1CONbits.T1SYNC = 0);
  1571     0D1A  1283               	bcf	3,5	;RP0=0, select bank0
  1572     0D1B  1303               	bcf	3,6	;RP1=0, select bank0
  1573     0D1C  1110               	bcf	16,2	;volatile
  1574     0D1D  2D29               	goto	l3556
  1575     0D1E                     l3548:
  1576     0D1E  0841               	movf	timer1_inti@tmr1_obj^(0+128),w
  1577     0D1F  3E03               	addlw	3
  1578     0D20  0084               	movwf	4
  1579     0D21  1980               	btfsc	0,3
  1580     0D22  2D24               	goto	u4391
  1581     0D23  2D25               	goto	u4390
  1582     0D24                     u4391:
  1583     0D24  2D29               	goto	l3552
  1584     0D25                     u4390:
  1585     0D25                     l3550:
  1586                           
  1587                           ;MCAL_Layer/Timer/hal_Timer.c: 35:                 (T1CONbits.T1SYNC = 1);
  1588     0D25  1283               	bcf	3,5	;RP0=0, select bank0
  1589     0D26  1303               	bcf	3,6	;RP1=0, select bank0
  1590     0D27  1510               	bsf	16,2	;volatile
  1591     0D28  2D29               	goto	l3556
  1592     0D29                     l3552:
  1593     0D29                     l3556:
  1594                           
  1595                           ;MCAL_Layer/Timer/hal_Timer.c: 43:         (T1CONbits.T1CKPS = tmr1_obj->prescaler_selec
      +                          t);
  1596     0D29  1683               	bsf	3,5	;RP0=1, select bank1
  1597     0D2A  1303               	bcf	3,6	;RP1=0, select bank1
  1598     0D2B  0841               	movf	timer1_inti@tmr1_obj^(0+128),w
  1599     0D2C  3E03               	addlw	3
  1600     0D2D  0084               	movwf	4
  1601     0D2E  0E00               	swapf	0,w
  1602     0D2F  3903               	andlw	3
  1603     0D30  00BF               	movwf	??_timer1_inti^(0+128)
  1604     0D31  0EBF               	swapf	??_timer1_inti^(0+128),f
  1605     0D32  1283               	bcf	3,5	;RP0=0, select bank0
  1606     0D33  1303               	bcf	3,6	;RP1=0, select bank0
  1607     0D34  0810               	movf	16,w	;volatile
  1608     0D35  1683               	bsf	3,5	;RP0=1, select bank1
  1609     0D36  1303               	bcf	3,6	;RP1=0, select bank1
  1610     0D37  063F               	xorwf	??_timer1_inti^(0+128),w
  1611     0D38  39CF               	andlw	-49
  1612     0D39  063F               	xorwf	??_timer1_inti^(0+128),w
  1613     0D3A  1283               	bcf	3,5	;RP0=0, select bank0
  1614     0D3B  1303               	bcf	3,6	;RP1=0, select bank0
  1615     0D3C  0090               	movwf	16	;volatile
  1616     0D3D                     l3558:
  1617                           
  1618                           ;MCAL_Layer/Timer/hal_Timer.c: 45:         TMR1H = 0;
  1619     0D3D  018F               	clrf	15	;volatile
  1620     0D3E                     l3560:
  1621                           
  1622                           ;MCAL_Layer/Timer/hal_Timer.c: 46:         TMR1L = 0;
  1623     0D3E  018E               	clrf	14	;volatile
  1624     0D3F                     l3562:
  1625                           
  1626                           ;MCAL_Layer/Timer/hal_Timer.c: 47:         TMR1H = (uint8)((tmr1_obj->initial_value) >> 
      +                          8);
  1627     0D3F  1683               	bsf	3,5	;RP0=1, select bank1
  1628     0D40  1303               	bcf	3,6	;RP1=0, select bank1
  1629     0D41  0A41               	incf	timer1_inti@tmr1_obj^(0+128),w
  1630     0D42  0084               	movwf	4
  1631     0D43  0800               	movf	0,w
  1632     0D44  00BF               	movwf	??_timer1_inti^(0+128)
  1633     0D45  0A84               	incf	4,f
  1634     0D46  0800               	movf	0,w
  1635     0D47  00C0               	movwf	(??_timer1_inti^(0+128)+1)
  1636     0D48  0840               	movf	(??_timer1_inti+1)^(0+128),w
  1637     0D49  1283               	bcf	3,5	;RP0=0, select bank0
  1638     0D4A  1303               	bcf	3,6	;RP1=0, select bank0
  1639     0D4B  008F               	movwf	15	;volatile
  1640     0D4C                     l3564:
  1641                           
  1642                           ;MCAL_Layer/Timer/hal_Timer.c: 48:         TMR1L = (uint8)(tmr1_obj->initial_value);
  1643     0D4C  1683               	bsf	3,5	;RP0=1, select bank1
  1644     0D4D  1303               	bcf	3,6	;RP1=0, select bank1
  1645     0D4E  0A41               	incf	timer1_inti@tmr1_obj^(0+128),w
  1646     0D4F  0084               	movwf	4
  1647     0D50  0800               	movf	0,w
  1648     0D51  1283               	bcf	3,5	;RP0=0, select bank0
  1649     0D52  1303               	bcf	3,6	;RP1=0, select bank0
  1650     0D53  008E               	movwf	14	;volatile
  1651                           
  1652                           ;MCAL_Layer/Timer/hal_Timer.c: 49:         preload_timer1 = tmr1_obj->initial_value;
  1653     0D54  1683               	bsf	3,5	;RP0=1, select bank1
  1654     0D55  1303               	bcf	3,6	;RP1=0, select bank1
  1655     0D56  0A41               	incf	timer1_inti@tmr1_obj^(0+128),w
  1656     0D57  0084               	movwf	4
  1657     0D58  0800               	movf	0,w
  1658     0D59  00D7               	movwf	_preload_timer1^(0+128)	;volatile
  1659     0D5A  0A84               	incf	4,f
  1660     0D5B  0800               	movf	0,w
  1661     0D5C  00D8               	movwf	(_preload_timer1+1)^(0+128)	;volatile
  1662     0D5D                     l3566:
  1663                           
  1664                           ;MCAL_Layer/Timer/hal_Timer.c: 53:          all_interrupt_disable();
  1665     0D5D  160A  118A  27B9  120A  158A  	fcall	_all_interrupt_disable
  1666     0D62                     l3568:
  1667                           
  1668                           ;MCAL_Layer/Timer/hal_Timer.c: 54:         (PIE1bits.TMR1IE = 0);
  1669     0D62  1683               	bsf	3,5	;RP0=1, select bank1
  1670     0D63  1303               	bcf	3,6	;RP1=0, select bank1
  1671     0D64  100C               	bcf	12,0	;volatile
  1672     0D65                     l3570:
  1673                           
  1674                           ;MCAL_Layer/Timer/hal_Timer.c: 56:         (PIR1bits.TMR1IF = 0);
  1675     0D65  1283               	bcf	3,5	;RP0=0, select bank0
  1676     0D66  1303               	bcf	3,6	;RP1=0, select bank0
  1677     0D67  100C               	bcf	12,0	;volatile
  1678     0D68                     l3572:
  1679                           
  1680                           ;MCAL_Layer/Timer/hal_Timer.c: 58:         TIMER1_InterruptHandler = tmr1_obj->TIMER1_In
      +                          terruptHandler;
  1681     0D68  1683               	bsf	3,5	;RP0=1, select bank1
  1682     0D69  1303               	bcf	3,6	;RP1=0, select bank1
  1683     0D6A  0841               	movf	timer1_inti@tmr1_obj^(0+128),w
  1684     0D6B  0084               	movwf	4
  1685     0D6C  1383               	bcf	3,7	;select IRP bank0
  1686     0D6D  0800               	movf	0,w
  1687     0D6E  00DB               	movwf	_TIMER1_InterruptHandler^(0+128)
  1688     0D6F                     l3574:
  1689                           
  1690                           ;MCAL_Layer/Timer/hal_Timer.c: 61:         (PIE1bits.TMR1IE = 1);
  1691     0D6F  140C               	bsf	12,0	;volatile
  1692     0D70                     l3576:
  1693                           
  1694                           ;MCAL_Layer/Timer/hal_Timer.c: 62:          all_interrupt_enable();
  1695     0D70  160A  118A  27BC  120A  158A  	fcall	_all_interrupt_enable
  1696     0D75                     l3578:
  1697                           
  1698                           ;MCAL_Layer/Timer/hal_Timer.c: 65:         (T1CONbits.TMR1ON = 1);
  1699     0D75  1283               	bcf	3,5	;RP0=0, select bank0
  1700     0D76  1303               	bcf	3,6	;RP1=0, select bank0
  1701     0D77  1410               	bsf	16,0	;volatile
  1702     0D78                     l241:
  1703     0D78  0008               	return
  1704     0D79                     __end_of_timer1_inti:
  1705                           
  1706                           	psect	text2
  1707     08B4                     __ptext2:	
  1708 ;; *************** function _servo_initialize *****************
  1709 ;; Defined at:
  1710 ;;		line 83 in file "application.c"
  1711 ;; Parameters:    Size  Location     Type
  1712 ;;  servo_pin       1    wreg     PTR struct .
  1713 ;;		 -> servo(1), 
  1714 ;;  ccp_select      1   12[BANK1 ] enum E1588
  1715 ;; Auto vars:     Size  Location     Type
  1716 ;;  servo_pin       1   15[BANK1 ] PTR struct .
  1717 ;;		 -> servo(1), 
  1718 ;; Return value:  Size  Location     Type
  1719 ;;                  1    wreg      void 
  1720 ;; Registers used:
  1721 ;;		wreg, fsr0l, fsr0h, status,2, status,0, btemp+1, pclath, cstack
  1722 ;; Tracked objects:
  1723 ;;		On entry : 0/0
  1724 ;;		On exit  : 0/0
  1725 ;;		Unchanged: 0/0
  1726 ;; Data sizes:     COMMON   BANK0   BANK1   BANK3   BANK2
  1727 ;;      Params:         0       0       1       0       0
  1728 ;;      Locals:         0       0       1       0       0
  1729 ;;      Temps:          0       0       2       0       0
  1730 ;;      Totals:         0       0       4       0       0
  1731 ;;Total ram usage:        4 bytes
  1732 ;; Hardware stack levels used: 1
  1733 ;; Hardware stack levels required when called: 7
  1734 ;; This function calls:
  1735 ;;		_ccp1_init
  1736 ;;		_ccp2_init
  1737 ;;		_gpio_pin_initialize
  1738 ;; This function is called by:
  1739 ;;		_main
  1740 ;; This function uses a non-reentrant model
  1741 ;;
  1742                           
  1743     08B4                     _servo_initialize:	
  1744                           ;psect for function _servo_initialize
  1745                           
  1746                           
  1747                           ;incstack = 0
  1748                           ; Regs used in _servo_initialize: [wreg-fsr0h+status,2+status,0+btemp+1+pclath+cstack]
  1749                           ;servo_initialize@servo_pin stored from wreg
  1750     08B4  1683               	bsf	3,5	;RP0=1, select bank1
  1751     08B5  1303               	bcf	3,6	;RP1=0, select bank1
  1752     08B6  00CE               	movwf	servo_initialize@servo_pin^(0+128)
  1753     08B7                     l3598:
  1754                           
  1755                           ;application.c: 83: void servo_initialize(pin_config_t* servo_pin, ccp_select_t ccp_sele
      +                          ct);application.c: 84: {;application.c: 85:     gpio_pin_initialize(servo_pin);
  1756     08B7  084E               	movf	servo_initialize@servo_pin^(0+128),w
  1757     08B8  120A  158A  210B  120A  158A  	fcall	_gpio_pin_initialize
  1758                           
  1759                           ;application.c: 86:     switch(ccp_select)
  1760     08BD  28CC               	goto	l3606
  1761     08BE                     l3600:
  1762                           
  1763                           ;application.c: 89:           ccp1_init(&ccp1);
  1764     08BE  30BB               	movlw	(low (_ccp1| 0))& (0+255)
  1765     08BF  120A  158A  21CD  120A  158A  	fcall	_ccp1_init
  1766                           
  1767                           ;application.c: 90:           break;
  1768     08C4  28DE               	goto	l348
  1769     08C5                     l3602:
  1770                           
  1771                           ;application.c: 92:           ccp2_init(&ccp2);
  1772     08C5  30B9               	movlw	(low (_ccp2| 0))& (0+255)
  1773     08C6  120A  158A  217F  120A  158A  	fcall	_ccp2_init
  1774                           
  1775                           ;application.c: 93:           break;
  1776     08CB  28DE               	goto	l348
  1777     08CC                     l3606:
  1778     08CC  1683               	bsf	3,5	;RP0=1, select bank1
  1779     08CD  1303               	bcf	3,6	;RP1=0, select bank1
  1780     08CE  084B               	movf	servo_initialize@ccp_select^(0+128),w
  1781     08CF  00CC               	movwf	??_servo_initialize^(0+128)
  1782     08D0  01CD               	clrf	(??_servo_initialize^(0+128)+1)
  1783                           
  1784                           ; Switch on 2 bytes has been partitioned into a top level switch of size 1, and 1 sub-sw
      +                          itches
  1785                           ; Switch size 1, requested type "simple"
  1786                           ; Number of cases is 1, Range of values is 0 to 0
  1787                           ; switch strategies available:
  1788                           ; Name         Instructions Cycles
  1789                           ; simple_byte            4     3 (average)
  1790                           ; direct_byte           11     8 (fixed)
  1791                           ; jumptable            260     6 (fixed)
  1792                           ;	Chosen strategy is simple_byte
  1793     08D1  084D               	movf	(??_servo_initialize+1)^(0+128),w
  1794     08D2  3A00               	xorlw	0	; case 0
  1795     08D3  1903               	skipnz
  1796     08D4  28D6               	goto	l3800
  1797     08D5  28DE               	goto	l348
  1798     08D6                     l3800:
  1799                           
  1800                           ; Switch size 1, requested type "simple"
  1801                           ; Number of cases is 2, Range of values is 0 to 1
  1802                           ; switch strategies available:
  1803                           ; Name         Instructions Cycles
  1804                           ; simple_byte            7     4 (average)
  1805                           ; direct_byte           14     8 (fixed)
  1806                           ; jumptable            260     6 (fixed)
  1807                           ;	Chosen strategy is simple_byte
  1808     08D6  084C               	movf	??_servo_initialize^(0+128),w
  1809     08D7  3A00               	xorlw	0	; case 0
  1810     08D8  1903               	skipnz
  1811     08D9  28BE               	goto	l3600
  1812     08DA  3A01               	xorlw	1	; case 1
  1813     08DB  1903               	skipnz
  1814     08DC  28C5               	goto	l3602
  1815     08DD  28DE               	goto	l348
  1816     08DE                     l348:
  1817     08DE  0008               	return
  1818     08DF                     __end_of_servo_initialize:
  1819                           
  1820                           	psect	text3
  1821     17E5                     __ptext3:	
  1822 ;; *************** function _servo90 *****************
  1823 ;; Defined at:
  1824 ;;		line 104 in file "application.c"
  1825 ;; Parameters:    Size  Location     Type
  1826 ;;		None
  1827 ;; Auto vars:     Size  Location     Type
  1828 ;;		None
  1829 ;; Return value:  Size  Location     Type
  1830 ;;                  1    wreg      void 
  1831 ;; Registers used:
  1832 ;;		wreg, status,2, status,0, pclath, cstack
  1833 ;; Tracked objects:
  1834 ;;		On entry : 0/0
  1835 ;;		On exit  : 0/0
  1836 ;;		Unchanged: 0/0
  1837 ;; Data sizes:     COMMON   BANK0   BANK1   BANK3   BANK2
  1838 ;;      Params:         0       0       0       0       0
  1839 ;;      Locals:         0       0       0       0       0
  1840 ;;      Temps:          0       0       0       0       0
  1841 ;;      Totals:         0       0       0       0       0
  1842 ;;Total ram usage:        0 bytes
  1843 ;; Hardware stack levels used: 1
  1844 ;; Hardware stack levels required when called: 6
  1845 ;; This function calls:
  1846 ;;		_ccp2_register_write
  1847 ;; This function is called by:
  1848 ;;		_main
  1849 ;; This function uses a non-reentrant model
  1850 ;;
  1851                           
  1852     17E5                     _servo90:	
  1853                           ;psect for function _servo90
  1854                           
  1855     17E5                     l3008:	
  1856                           ;incstack = 0
  1857                           ; Regs used in _servo90: [wreg+status,2+status,0+pclath+cstack]
  1858                           
  1859                           
  1860                           ;application.c: 106:     ccp2_register_write(61140);
  1861     17E5  30D4               	movlw	212
  1862     17E6  1683               	bsf	3,5	;RP0=1, select bank1
  1863     17E7  1303               	bcf	3,6	;RP1=0, select bank1
  1864     17E8  00BF               	movwf	ccp2_register_write@value^(0+128)
  1865     17E9  30EE               	movlw	238
  1866     17EA  00C0               	movwf	(ccp2_register_write@value^(0+128)+1)
  1867     17EB  120A  118A  27F3  160A  118A  	fcall	_ccp2_register_write
  1868     17F0                     l354:
  1869     17F0  0008               	return
  1870     17F1                     __end_of_servo90:
  1871                           
  1872                           	psect	text4
  1873     17D9                     __ptext4:	
  1874 ;; *************** function _servo0 *****************
  1875 ;; Defined at:
  1876 ;;		line 98 in file "application.c"
  1877 ;; Parameters:    Size  Location     Type
  1878 ;;		None
  1879 ;; Auto vars:     Size  Location     Type
  1880 ;;		None
  1881 ;; Return value:  Size  Location     Type
  1882 ;;                  1    wreg      void 
  1883 ;; Registers used:
  1884 ;;		wreg, status,2, status,0, pclath, cstack
  1885 ;; Tracked objects:
  1886 ;;		On entry : 0/0
  1887 ;;		On exit  : 0/0
  1888 ;;		Unchanged: 0/0
  1889 ;; Data sizes:     COMMON   BANK0   BANK1   BANK3   BANK2
  1890 ;;      Params:         0       0       0       0       0
  1891 ;;      Locals:         0       0       0       0       0
  1892 ;;      Temps:          0       0       0       0       0
  1893 ;;      Totals:         0       0       0       0       0
  1894 ;;Total ram usage:        0 bytes
  1895 ;; Hardware stack levels used: 1
  1896 ;; Hardware stack levels required when called: 6
  1897 ;; This function calls:
  1898 ;;		_ccp2_register_write
  1899 ;; This function is called by:
  1900 ;;		_main
  1901 ;; This function uses a non-reentrant model
  1902 ;;
  1903                           
  1904     17D9                     _servo0:	
  1905                           ;psect for function _servo0
  1906                           
  1907     17D9                     l3006:	
  1908                           ;incstack = 0
  1909                           ; Regs used in _servo0: [wreg+status,2+status,0+pclath+cstack]
  1910                           
  1911                           
  1912                           ;application.c: 100:     ccp2_register_write(60874);
  1913     17D9  30CA               	movlw	202
  1914     17DA  1683               	bsf	3,5	;RP0=1, select bank1
  1915     17DB  1303               	bcf	3,6	;RP1=0, select bank1
  1916     17DC  00BF               	movwf	ccp2_register_write@value^(0+128)
  1917     17DD  30ED               	movlw	237
  1918     17DE  00C0               	movwf	(ccp2_register_write@value^(0+128)+1)
  1919     17DF  120A  118A  27F3  160A  118A  	fcall	_ccp2_register_write
  1920     17E4                     l351:
  1921     17E4  0008               	return
  1922     17E5                     __end_of_servo0:
  1923                           
  1924                           	psect	text5
  1925     07F3                     __ptext5:	
  1926 ;; *************** function _ccp2_register_write *****************
  1927 ;; Defined at:
  1928 ;;		line 100 in file "MCAL_Layer/CCP/hal_ccp.c"
  1929 ;; Parameters:    Size  Location     Type
  1930 ;;  value           2    0[BANK1 ] unsigned short 
  1931 ;; Auto vars:     Size  Location     Type
  1932 ;;		None
  1933 ;; Return value:  Size  Location     Type
  1934 ;;                  1    wreg      void 
  1935 ;; Registers used:
  1936 ;;		wreg
  1937 ;; Tracked objects:
  1938 ;;		On entry : 0/0
  1939 ;;		On exit  : 0/0
  1940 ;;		Unchanged: 0/0
  1941 ;; Data sizes:     COMMON   BANK0   BANK1   BANK3   BANK2
  1942 ;;      Params:         0       0       2       0       0
  1943 ;;      Locals:         0       0       0       0       0
  1944 ;;      Temps:          0       0       0       0       0
  1945 ;;      Totals:         0       0       2       0       0
  1946 ;;Total ram usage:        2 bytes
  1947 ;; Hardware stack levels used: 1
  1948 ;; Hardware stack levels required when called: 5
  1949 ;; This function calls:
  1950 ;;		Nothing
  1951 ;; This function is called by:
  1952 ;;		_servo0
  1953 ;;		_servo90
  1954 ;; This function uses a non-reentrant model
  1955 ;;
  1956                           
  1957     07F3                     _ccp2_register_write:	
  1958                           ;psect for function _ccp2_register_write
  1959                           
  1960     07F3                     l2838:	
  1961                           ;incstack = 0
  1962                           ; Regs used in _ccp2_register_write: [wreg]
  1963                           
  1964                           
  1965                           ;MCAL_Layer/CCP/hal_ccp.c: 100: void ccp2_register_write(uint16 value);MCAL_Layer/CCP/ha
      +                          l_ccp.c: 101: {;MCAL_Layer/CCP/hal_ccp.c: 102:     CCPR2 = value;
  1966     07F3  1683               	bsf	3,5	;RP0=1, select bank1
  1967     07F4  1303               	bcf	3,6	;RP1=0, select bank1
  1968     07F5  0840               	movf	(ccp2_register_write@value+1)^(0+128),w
  1969     07F6  1283               	bcf	3,5	;RP0=0, select bank0
  1970     07F7  1303               	bcf	3,6	;RP1=0, select bank0
  1971     07F8  009C               	movwf	28	;volatile
  1972     07F9  1683               	bsf	3,5	;RP0=1, select bank1
  1973     07FA  1303               	bcf	3,6	;RP1=0, select bank1
  1974     07FB  083F               	movf	ccp2_register_write@value^(0+128),w
  1975     07FC  1283               	bcf	3,5	;RP0=0, select bank0
  1976     07FD  1303               	bcf	3,6	;RP1=0, select bank0
  1977     07FE  009B               	movwf	27	;volatile
  1978     07FF                     l61:
  1979     07FF  0008               	return
  1980     0800                     __end_of_ccp2_register_write:
  1981                           
  1982                           	psect	text6
  1983     0889                     __ptext6:	
  1984 ;; *************** function _sensor_initialize *****************
  1985 ;; Defined at:
  1986 ;;		line 65 in file "application.c"
  1987 ;; Parameters:    Size  Location     Type
  1988 ;;  trigger_pin     1    wreg     PTR struct .
  1989 ;;		 -> trigger(1), 
  1990 ;;  ccp_select      1   12[BANK1 ] enum E1588
  1991 ;; Auto vars:     Size  Location     Type
  1992 ;;  trigger_pin     1   15[BANK1 ] PTR struct .
  1993 ;;		 -> trigger(1), 
  1994 ;; Return value:  Size  Location     Type
  1995 ;;                  1    wreg      void 
  1996 ;; Registers used:
  1997 ;;		wreg, fsr0l, fsr0h, status,2, status,0, btemp+1, pclath, cstack
  1998 ;; Tracked objects:
  1999 ;;		On entry : 0/0
  2000 ;;		On exit  : 0/0
  2001 ;;		Unchanged: 0/0
  2002 ;; Data sizes:     COMMON   BANK0   BANK1   BANK3   BANK2
  2003 ;;      Params:         0       0       1       0       0
  2004 ;;      Locals:         0       0       1       0       0
  2005 ;;      Temps:          0       0       2       0       0
  2006 ;;      Totals:         0       0       4       0       0
  2007 ;;Total ram usage:        4 bytes
  2008 ;; Hardware stack levels used: 1
  2009 ;; Hardware stack levels required when called: 7
  2010 ;; This function calls:
  2011 ;;		_ccp1_init
  2012 ;;		_ccp2_init
  2013 ;;		_gpio_pin_initialize
  2014 ;; This function is called by:
  2015 ;;		_main
  2016 ;; This function uses a non-reentrant model
  2017 ;;
  2018                           
  2019     0889                     _sensor_initialize:	
  2020                           ;psect for function _sensor_initialize
  2021                           
  2022                           
  2023                           ;incstack = 0
  2024                           ; Regs used in _sensor_initialize: [wreg-fsr0h+status,2+status,0+btemp+1+pclath+cstack]
  2025                           ;sensor_initialize@trigger_pin stored from wreg
  2026     0889  1683               	bsf	3,5	;RP0=1, select bank1
  2027     088A  1303               	bcf	3,6	;RP1=0, select bank1
  2028     088B  00CE               	movwf	sensor_initialize@trigger_pin^(0+128)
  2029     088C                     l3582:
  2030                           
  2031                           ;application.c: 65: void sensor_initialize(pin_config_t* trigger_pin, ccp_select_t ccp_s
      +                          elect);application.c: 66: {;application.c: 67:     gpio_pin_initialize(trigger_pin);
  2032     088C  084E               	movf	sensor_initialize@trigger_pin^(0+128),w
  2033     088D  120A  158A  210B  120A  158A  	fcall	_gpio_pin_initialize
  2034                           
  2035                           ;application.c: 68:     switch(ccp_select)
  2036     0892  28A1               	goto	l3590
  2037     0893                     l3584:
  2038                           
  2039                           ;application.c: 71:           ccp1_init(&ccp1);
  2040     0893  30BB               	movlw	(low (_ccp1| 0))& (0+255)
  2041     0894  120A  158A  21CD  120A  158A  	fcall	_ccp1_init
  2042                           
  2043                           ;application.c: 72:           break;
  2044     0899  28B3               	goto	l341
  2045     089A                     l3586:
  2046                           
  2047                           ;application.c: 74:           ccp2_init(&ccp2);
  2048     089A  30B9               	movlw	(low (_ccp2| 0))& (0+255)
  2049     089B  120A  158A  217F  120A  158A  	fcall	_ccp2_init
  2050                           
  2051                           ;application.c: 75:           break;
  2052     08A0  28B3               	goto	l341
  2053     08A1                     l3590:
  2054     08A1  1683               	bsf	3,5	;RP0=1, select bank1
  2055     08A2  1303               	bcf	3,6	;RP1=0, select bank1
  2056     08A3  084B               	movf	sensor_initialize@ccp_select^(0+128),w
  2057     08A4  00CC               	movwf	??_sensor_initialize^(0+128)
  2058     08A5  01CD               	clrf	(??_sensor_initialize^(0+128)+1)
  2059                           
  2060                           ; Switch on 2 bytes has been partitioned into a top level switch of size 1, and 1 sub-sw
      +                          itches
  2061                           ; Switch size 1, requested type "simple"
  2062                           ; Number of cases is 1, Range of values is 0 to 0
  2063                           ; switch strategies available:
  2064                           ; Name         Instructions Cycles
  2065                           ; simple_byte            4     3 (average)
  2066                           ; direct_byte           11     8 (fixed)
  2067                           ; jumptable            260     6 (fixed)
  2068                           ;	Chosen strategy is simple_byte
  2069     08A6  084D               	movf	(??_sensor_initialize+1)^(0+128),w
  2070     08A7  3A00               	xorlw	0	; case 0
  2071     08A8  1903               	skipnz
  2072     08A9  28AB               	goto	l3802
  2073     08AA  28B3               	goto	l341
  2074     08AB                     l3802:
  2075                           
  2076                           ; Switch size 1, requested type "simple"
  2077                           ; Number of cases is 2, Range of values is 0 to 1
  2078                           ; switch strategies available:
  2079                           ; Name         Instructions Cycles
  2080                           ; simple_byte            7     4 (average)
  2081                           ; direct_byte           14     8 (fixed)
  2082                           ; jumptable            260     6 (fixed)
  2083                           ;	Chosen strategy is simple_byte
  2084     08AB  084C               	movf	??_sensor_initialize^(0+128),w
  2085     08AC  3A00               	xorlw	0	; case 0
  2086     08AD  1903               	skipnz
  2087     08AE  2893               	goto	l3584
  2088     08AF  3A01               	xorlw	1	; case 1
  2089     08B0  1903               	skipnz
  2090     08B1  289A               	goto	l3586
  2091     08B2  28B3               	goto	l341
  2092     08B3                     l341:
  2093     08B3  0008               	return
  2094     08B4                     __end_of_sensor_initialize:
  2095                           
  2096                           	psect	text7
  2097     090B                     __ptext7:	
  2098 ;; *************** function _gpio_pin_initialize *****************
  2099 ;; Defined at:
  2100 ;;		line 107 in file "MCAL_Layer/GPIO/hal_gpio.c"
  2101 ;; Parameters:    Size  Location     Type
  2102 ;;  pin_config      1    wreg     PTR const struct .
  2103 ;;		 -> servo(1), trigger(1), 
  2104 ;; Auto vars:     Size  Location     Type
  2105 ;;  pin_config      1   11[BANK1 ] PTR const struct .
  2106 ;;		 -> servo(1), trigger(1), 
  2107 ;;  ret             1   10[BANK1 ] unsigned char 
  2108 ;; Return value:  Size  Location     Type
  2109 ;;                  1    wreg      unsigned char 
  2110 ;; Registers used:
  2111 ;;		wreg, fsr0l, fsr0h, status,2, status,0, btemp+1, pclath, cstack
  2112 ;; Tracked objects:
  2113 ;;		On entry : 0/0
  2114 ;;		On exit  : 0/0
  2115 ;;		Unchanged: 0/0
  2116 ;; Data sizes:     COMMON   BANK0   BANK1   BANK3   BANK2
  2117 ;;      Params:         0       0       0       0       0
  2118 ;;      Locals:         0       0       2       0       0
  2119 ;;      Temps:          0       0       2       0       0
  2120 ;;      Totals:         0       0       4       0       0
  2121 ;;Total ram usage:        4 bytes
  2122 ;; Hardware stack levels used: 1
  2123 ;; Hardware stack levels required when called: 6
  2124 ;; This function calls:
  2125 ;;		_gpio_pin_direction_initialize
  2126 ;;		_gpio_pin_write_logic
  2127 ;; This function is called by:
  2128 ;;		_sensor_initialize
  2129 ;;		_servo_initialize
  2130 ;; This function uses a non-reentrant model
  2131 ;;
  2132                           
  2133     090B                     _gpio_pin_initialize:	
  2134                           ;psect for function _gpio_pin_initialize
  2135                           
  2136                           
  2137                           ;incstack = 0
  2138                           ; Regs used in _gpio_pin_initialize: [wreg-fsr0h+status,2+status,0+btemp+1+pclath+cstack
      +                          ]
  2139                           ;gpio_pin_initialize@pin_config stored from wreg
  2140     090B  1683               	bsf	3,5	;RP0=1, select bank1
  2141     090C  1303               	bcf	3,6	;RP1=0, select bank1
  2142     090D  00CA               	movwf	gpio_pin_initialize@pin_config^(0+128)
  2143     090E                     l3476:
  2144     090E                     l3478:
  2145                           
  2146                           ;MCAL_Layer/GPIO/hal_gpio.c: 110:     if ((((void*)0) == pin_config)|| (pin_config->pin 
      +                          > 8 -1))
  2147     090E  084A               	movf	gpio_pin_initialize@pin_config^(0+128),w
  2148     090F  1903               	btfsc	3,2
  2149     0910  2912               	goto	u4281
  2150     0911  2913               	goto	u4280
  2151     0912                     u4281:
  2152     0912  2922               	goto	l3482
  2153     0913                     u4280:
  2154     0913                     l3480:
  2155     0913  084A               	movf	gpio_pin_initialize@pin_config^(0+128),w
  2156     0914  0084               	movwf	4
  2157     0915  1383               	bcf	3,7	;select IRP bank0
  2158     0916  0C00               	rrf	0,w
  2159     0917  00C7               	movwf	??_gpio_pin_initialize^(0+128)
  2160     0918  0CC7               	rrf	??_gpio_pin_initialize^(0+128),f
  2161     0919  0C47               	rrf	??_gpio_pin_initialize^(0+128),w
  2162     091A  3907               	andlw	7
  2163     091B  00C8               	movwf	(??_gpio_pin_initialize+1)^(0+128)
  2164     091C  3008               	movlw	8
  2165     091D  0248               	subwf	(??_gpio_pin_initialize+1)^(0+128),w
  2166     091E  1C03               	skipc
  2167     091F  2921               	goto	u4291
  2168     0920  2922               	goto	u4290
  2169     0921                     u4291:
  2170     0921  2923               	goto	l3484
  2171     0922                     u4290:
  2172     0922                     l3482:
  2173                           
  2174                           ;MCAL_Layer/GPIO/hal_gpio.c: 113:     }
  2175     0922  293E               	goto	l144
  2176     0923                     l3484:
  2177                           
  2178                           ;MCAL_Layer/GPIO/hal_gpio.c: 115:     {;MCAL_Layer/GPIO/hal_gpio.c: 116:         ret = g
      +                          pio_pin_direction_initialize(pin_config);
  2179     0923  084A               	movf	gpio_pin_initialize@pin_config^(0+128),w
  2180     0924  120A  158A  2311  120A  158A  	fcall	_gpio_pin_direction_initialize
  2181     0929  1683               	bsf	3,5	;RP0=1, select bank1
  2182     092A  1303               	bcf	3,6	;RP1=0, select bank1
  2183     092B  00C9               	movwf	gpio_pin_initialize@ret^(0+128)
  2184                           
  2185                           ;MCAL_Layer/GPIO/hal_gpio.c: 117:         ret &= gpio_pin_write_logic(pin_config, pin_co
      +                          nfig->logic);
  2186     092C  084A               	movf	gpio_pin_initialize@pin_config^(0+128),w
  2187     092D  0084               	movwf	4
  2188     092E  3000               	movlw	0
  2189     092F  1383               	bcf	3,7	;select IRP bank0
  2190     0930  1B00               	btfsc	0,6
  2191     0931  3001               	movlw	1
  2192     0932  00BF               	movwf	gpio_pin_write_logic@logic^(0+128)
  2193     0933  084A               	movf	gpio_pin_initialize@pin_config^(0+128),w
  2194     0934  120A  158A  2295  120A  158A  	fcall	_gpio_pin_write_logic
  2195     0939  00FF               	movwf	btemp+1
  2196     093A  087F               	movf	btemp+1,w
  2197     093B  1683               	bsf	3,5	;RP0=1, select bank1
  2198     093C  1303               	bcf	3,6	;RP1=0, select bank1
  2199     093D  05C9               	andwf	gpio_pin_initialize@ret^(0+128),f
  2200     093E                     l144:
  2201     093E  0008               	return
  2202     093F                     __end_of_gpio_pin_initialize:
  2203                           
  2204                           	psect	text8
  2205     0A95                     __ptext8:	
  2206 ;; *************** function _gpio_pin_write_logic *****************
  2207 ;; Defined at:
  2208 ;;		line 49 in file "MCAL_Layer/GPIO/hal_gpio.c"
  2209 ;; Parameters:    Size  Location     Type
  2210 ;;  pin_config      1    wreg     PTR const struct .
  2211 ;;		 -> servo(1), trigger(1), 
  2212 ;;  logic           1    0[BANK1 ] enum E1524
  2213 ;; Auto vars:     Size  Location     Type
  2214 ;;  pin_config      1    7[BANK1 ] PTR const struct .
  2215 ;;		 -> servo(1), trigger(1), 
  2216 ;;  ret             1    6[BANK1 ] unsigned char 
  2217 ;; Return value:  Size  Location     Type
  2218 ;;                  1    wreg      unsigned char 
  2219 ;; Registers used:
  2220 ;;		wreg, fsr0l, fsr0h, status,2, status,0, btemp+1
  2221 ;; Tracked objects:
  2222 ;;		On entry : 0/0
  2223 ;;		On exit  : 0/0
  2224 ;;		Unchanged: 0/0
  2225 ;; Data sizes:     COMMON   BANK0   BANK1   BANK3   BANK2
  2226 ;;      Params:         0       0       1       0       0
  2227 ;;      Locals:         0       0       2       0       0
  2228 ;;      Temps:          0       0       5       0       0
  2229 ;;      Totals:         0       0       8       0       0
  2230 ;;Total ram usage:        8 bytes
  2231 ;; Hardware stack levels used: 1
  2232 ;; Hardware stack levels required when called: 5
  2233 ;; This function calls:
  2234 ;;		Nothing
  2235 ;; This function is called by:
  2236 ;;		_gpio_pin_initialize
  2237 ;; This function uses a non-reentrant model
  2238 ;;
  2239                           
  2240     0A95                     _gpio_pin_write_logic:	
  2241                           ;psect for function _gpio_pin_write_logic
  2242                           
  2243                           
  2244                           ;incstack = 0
  2245                           ; Regs used in _gpio_pin_write_logic: [wreg-fsr0h+status,2+status,0+btemp+1]
  2246                           ;gpio_pin_write_logic@pin_config stored from wreg
  2247     0A95  1683               	bsf	3,5	;RP0=1, select bank1
  2248     0A96  1303               	bcf	3,6	;RP1=0, select bank1
  2249     0A97  00C6               	movwf	gpio_pin_write_logic@pin_config^(0+128)
  2250     0A98                     l3370:
  2251     0A98                     l3372:
  2252                           
  2253                           ;MCAL_Layer/GPIO/hal_gpio.c: 52:     if ((((void*)0) == pin_config)|| (pin_config->pin >
      +                           8 -1))
  2254     0A98  0846               	movf	gpio_pin_write_logic@pin_config^(0+128),w
  2255     0A99  1903               	btfsc	3,2
  2256     0A9A  2A9C               	goto	u4141
  2257     0A9B  2A9D               	goto	u4140
  2258     0A9C                     u4141:
  2259     0A9C  2AAC               	goto	l3376
  2260     0A9D                     u4140:
  2261     0A9D                     l3374:
  2262     0A9D  0846               	movf	gpio_pin_write_logic@pin_config^(0+128),w
  2263     0A9E  0084               	movwf	4
  2264     0A9F  1383               	bcf	3,7	;select IRP bank0
  2265     0AA0  0C00               	rrf	0,w
  2266     0AA1  00C0               	movwf	??_gpio_pin_write_logic^(0+128)
  2267     0AA2  0CC0               	rrf	??_gpio_pin_write_logic^(0+128),f
  2268     0AA3  0C40               	rrf	??_gpio_pin_write_logic^(0+128),w
  2269     0AA4  3907               	andlw	7
  2270     0AA5  00C1               	movwf	(??_gpio_pin_write_logic+1)^(0+128)
  2271     0AA6  3008               	movlw	8
  2272     0AA7  0241               	subwf	(??_gpio_pin_write_logic+1)^(0+128),w
  2273     0AA8  1C03               	skipc
  2274     0AA9  2AAB               	goto	u4151
  2275     0AAA  2AAC               	goto	u4150
  2276     0AAB                     u4151:
  2277     0AAB  2AFF               	goto	l3388
  2278     0AAC                     u4150:
  2279     0AAC                     l3376:
  2280                           
  2281                           ;MCAL_Layer/GPIO/hal_gpio.c: 53:     {;MCAL_Layer/GPIO/hal_gpio.c: 54:         ret = (st
      +                          d_ReturnType)0X00;;
  2282     0AAC  01C5               	clrf	gpio_pin_write_logic@ret^(0+128)
  2283                           
  2284                           ;MCAL_Layer/GPIO/hal_gpio.c: 55:     }
  2285     0AAD  2B0F               	goto	l3390
  2286     0AAE                     l3378:
  2287                           
  2288                           ;MCAL_Layer/GPIO/hal_gpio.c: 61:                (*port_registers[pin_config->port] &= ~(
      +                          (uint8)0x01 << pin_config->pin));
  2289     0AAE  3001               	movlw	1
  2290     0AAF  00C0               	movwf	??_gpio_pin_write_logic^(0+128)
  2291     0AB0  0846               	movf	gpio_pin_write_logic@pin_config^(0+128),w
  2292     0AB1  0084               	movwf	4
  2293     0AB2  0C00               	rrf	0,w
  2294     0AB3  00C1               	movwf	(??_gpio_pin_write_logic+1)^(0+128)
  2295     0AB4  0CC1               	rrf	(??_gpio_pin_write_logic+1)^(0+128),f
  2296     0AB5  0C41               	rrf	(??_gpio_pin_write_logic+1)^(0+128),w
  2297     0AB6  3907               	andlw	7
  2298     0AB7  3E01               	addlw	1
  2299     0AB8  2ABB               	goto	u4164
  2300     0AB9                     u4165:
  2301     0AB9  1003               	clrc
  2302     0ABA  0DC0               	rlf	??_gpio_pin_write_logic^(0+128),f
  2303     0ABB                     u4164:
  2304     0ABB  3EFF               	addlw	-1
  2305     0ABC  1D03               	skipz
  2306     0ABD  2AB9               	goto	u4165
  2307     0ABE  0840               	movf	??_gpio_pin_write_logic^(0+128),w
  2308     0ABF  3AFF               	xorlw	255
  2309     0AC0  00FF               	movwf	btemp+1
  2310     0AC1  0846               	movf	gpio_pin_write_logic@pin_config^(0+128),w
  2311     0AC2  0084               	movwf	4
  2312     0AC3  0800               	movf	0,w
  2313     0AC4  3907               	andlw	7
  2314     0AC5  00C2               	movwf	(??_gpio_pin_write_logic+2)^(0+128)
  2315     0AC6  0742               	addwf	(??_gpio_pin_write_logic+2)^(0+128),w
  2316     0AC7  3EA0               	addlw	(low (_port_registers| 0))& (0+255)
  2317     0AC8  0084               	movwf	4
  2318     0AC9  0800               	movf	0,w
  2319     0ACA  00C3               	movwf	(??_gpio_pin_write_logic+3)^(0+128)
  2320     0ACB  0A84               	incf	4,f
  2321     0ACC  0800               	movf	0,w
  2322     0ACD  00C4               	movwf	((??_gpio_pin_write_logic+3)^(0+128)+1)
  2323     0ACE  0843               	movf	(??_gpio_pin_write_logic+3)^(0+128),w
  2324     0ACF  0084               	movwf	4
  2325     0AD0  1783               	bsf	3,7
  2326     0AD1  1C44               	btfss	(??_gpio_pin_write_logic+4)^(0+128),0
  2327     0AD2  1383               	bcf	3,7
  2328     0AD3  087F               	movf	btemp+1,w
  2329     0AD4  0580               	andwf	0,f
  2330     0AD5                     l3380:
  2331                           
  2332                           ;MCAL_Layer/GPIO/hal_gpio.c: 62:                ret = (std_ReturnType)0X01;;
  2333     0AD5  01C5               	clrf	gpio_pin_write_logic@ret^(0+128)
  2334     0AD6  0AC5               	incf	gpio_pin_write_logic@ret^(0+128),f
  2335                           
  2336                           ;MCAL_Layer/GPIO/hal_gpio.c: 63:                break;
  2337     0AD7  2B0F               	goto	l3390
  2338     0AD8                     l3382:
  2339                           
  2340                           ;MCAL_Layer/GPIO/hal_gpio.c: 65:                 (*port_registers[pin_config->port] |= (
      +                          (uint8)0x01 << pin_config->pin));
  2341     0AD8  3001               	movlw	1
  2342     0AD9  00C0               	movwf	??_gpio_pin_write_logic^(0+128)
  2343     0ADA  0846               	movf	gpio_pin_write_logic@pin_config^(0+128),w
  2344     0ADB  0084               	movwf	4
  2345     0ADC  0C00               	rrf	0,w
  2346     0ADD  00C1               	movwf	(??_gpio_pin_write_logic+1)^(0+128)
  2347     0ADE  0CC1               	rrf	(??_gpio_pin_write_logic+1)^(0+128),f
  2348     0ADF  0C41               	rrf	(??_gpio_pin_write_logic+1)^(0+128),w
  2349     0AE0  3907               	andlw	7
  2350     0AE1  3E01               	addlw	1
  2351     0AE2  2AE5               	goto	u4174
  2352     0AE3                     u4175:
  2353     0AE3  1003               	clrc
  2354     0AE4  0DC0               	rlf	??_gpio_pin_write_logic^(0+128),f
  2355     0AE5                     u4174:
  2356     0AE5  3EFF               	addlw	-1
  2357     0AE6  1D03               	skipz
  2358     0AE7  2AE3               	goto	u4175
  2359     0AE8  0840               	movf	??_gpio_pin_write_logic^(0+128),w
  2360     0AE9  00FF               	movwf	btemp+1
  2361     0AEA  0846               	movf	gpio_pin_write_logic@pin_config^(0+128),w
  2362     0AEB  0084               	movwf	4
  2363     0AEC  0800               	movf	0,w
  2364     0AED  3907               	andlw	7
  2365     0AEE  00C2               	movwf	(??_gpio_pin_write_logic+2)^(0+128)
  2366     0AEF  0742               	addwf	(??_gpio_pin_write_logic+2)^(0+128),w
  2367     0AF0  3EA0               	addlw	(low (_port_registers| 0))& (0+255)
  2368     0AF1  0084               	movwf	4
  2369     0AF2  0800               	movf	0,w
  2370     0AF3  00C3               	movwf	(??_gpio_pin_write_logic+3)^(0+128)
  2371     0AF4  0A84               	incf	4,f
  2372     0AF5  0800               	movf	0,w
  2373     0AF6  00C4               	movwf	((??_gpio_pin_write_logic+3)^(0+128)+1)
  2374     0AF7  0843               	movf	(??_gpio_pin_write_logic+3)^(0+128),w
  2375     0AF8  0084               	movwf	4
  2376     0AF9  1783               	bsf	3,7
  2377     0AFA  1C44               	btfss	(??_gpio_pin_write_logic+4)^(0+128),0
  2378     0AFB  1383               	bcf	3,7
  2379     0AFC  087F               	movf	btemp+1,w
  2380     0AFD  0480               	iorwf	0,f
  2381     0AFE  2AD5               	goto	l3380
  2382     0AFF                     l3388:
  2383     0AFF  083F               	movf	gpio_pin_write_logic@logic^(0+128),w
  2384     0B00  00C0               	movwf	??_gpio_pin_write_logic^(0+128)
  2385     0B01  01C1               	clrf	(??_gpio_pin_write_logic^(0+128)+1)
  2386                           
  2387                           ; Switch on 2 bytes has been partitioned into a top level switch of size 1, and 1 sub-sw
      +                          itches
  2388                           ; Switch size 1, requested type "simple"
  2389                           ; Number of cases is 1, Range of values is 0 to 0
  2390                           ; switch strategies available:
  2391                           ; Name         Instructions Cycles
  2392                           ; simple_byte            4     3 (average)
  2393                           ; direct_byte           11     8 (fixed)
  2394                           ; jumptable            260     6 (fixed)
  2395                           ;	Chosen strategy is simple_byte
  2396     0B02  0841               	movf	(??_gpio_pin_write_logic+1)^(0+128),w
  2397     0B03  3A00               	xorlw	0	; case 0
  2398     0B04  1903               	skipnz
  2399     0B05  2B07               	goto	l3804
  2400     0B06  2AAC               	goto	l3376
  2401     0B07                     l3804:
  2402                           
  2403                           ; Switch size 1, requested type "simple"
  2404                           ; Number of cases is 2, Range of values is 0 to 1
  2405                           ; switch strategies available:
  2406                           ; Name         Instructions Cycles
  2407                           ; simple_byte            7     4 (average)
  2408                           ; direct_byte           14     8 (fixed)
  2409                           ; jumptable            260     6 (fixed)
  2410                           ;	Chosen strategy is simple_byte
  2411     0B07  0840               	movf	??_gpio_pin_write_logic^(0+128),w
  2412     0B08  3A00               	xorlw	0	; case 0
  2413     0B09  1903               	skipnz
  2414     0B0A  2AAE               	goto	l3378
  2415     0B0B  3A01               	xorlw	1	; case 1
  2416     0B0C  1903               	skipnz
  2417     0B0D  2AD8               	goto	l3382
  2418     0B0E  2AAC               	goto	l3376
  2419     0B0F                     l3390:
  2420                           
  2421                           ;MCAL_Layer/GPIO/hal_gpio.c: 72:     return ret;
  2422     0B0F  0845               	movf	gpio_pin_write_logic@ret^(0+128),w
  2423     0B10                     l123:
  2424     0B10  0008               	return
  2425     0B11                     __end_of_gpio_pin_write_logic:
  2426                           
  2427                           	psect	text9
  2428     0B11                     __ptext9:	
  2429 ;; *************** function _gpio_pin_direction_initialize *****************
  2430 ;; Defined at:
  2431 ;;		line 9 in file "MCAL_Layer/GPIO/hal_gpio.c"
  2432 ;; Parameters:    Size  Location     Type
  2433 ;;  pin_config      1    wreg     PTR const struct .
  2434 ;;		 -> servo(1), trigger(1), 
  2435 ;; Auto vars:     Size  Location     Type
  2436 ;;  pin_config      1    6[BANK1 ] PTR const struct .
  2437 ;;		 -> servo(1), trigger(1), 
  2438 ;;  ret             1    5[BANK1 ] unsigned char 
  2439 ;; Return value:  Size  Location     Type
  2440 ;;                  1    wreg      unsigned char 
  2441 ;; Registers used:
  2442 ;;		wreg, fsr0l, fsr0h, status,2, status,0, btemp+1
  2443 ;; Tracked objects:
  2444 ;;		On entry : 0/0
  2445 ;;		On exit  : 0/0
  2446 ;;		Unchanged: 0/0
  2447 ;; Data sizes:     COMMON   BANK0   BANK1   BANK3   BANK2
  2448 ;;      Params:         0       0       0       0       0
  2449 ;;      Locals:         0       0       2       0       0
  2450 ;;      Temps:          0       0       5       0       0
  2451 ;;      Totals:         0       0       7       0       0
  2452 ;;Total ram usage:        7 bytes
  2453 ;; Hardware stack levels used: 1
  2454 ;; Hardware stack levels required when called: 5
  2455 ;; This function calls:
  2456 ;;		Nothing
  2457 ;; This function is called by:
  2458 ;;		_gpio_pin_initialize
  2459 ;; This function uses a non-reentrant model
  2460 ;;
  2461                           
  2462     0B11                     _gpio_pin_direction_initialize:	
  2463                           ;psect for function _gpio_pin_direction_initialize
  2464                           
  2465                           
  2466                           ;incstack = 0
  2467                           ; Regs used in _gpio_pin_direction_initialize: [wreg-fsr0h+status,2+status,0+btemp+1]
  2468                           ;gpio_pin_direction_initialize@pin_config stored from wreg
  2469     0B11  1683               	bsf	3,5	;RP0=1, select bank1
  2470     0B12  1303               	bcf	3,6	;RP1=0, select bank1
  2471     0B13  00C5               	movwf	gpio_pin_direction_initialize@pin_config^(0+128)
  2472     0B14                     l3340:
  2473     0B14                     l3342:
  2474                           
  2475                           ;MCAL_Layer/GPIO/hal_gpio.c: 11:     if ((((void*)0) == pin_config)|| (pin_config->pin >
      +                           8 -1))
  2476     0B14  0845               	movf	gpio_pin_direction_initialize@pin_config^(0+128),w
  2477     0B15  1903               	btfsc	3,2
  2478     0B16  2B18               	goto	u4101
  2479     0B17  2B19               	goto	u4100
  2480     0B18                     u4101:
  2481     0B18  2B28               	goto	l3346
  2482     0B19                     u4100:
  2483     0B19                     l3344:
  2484     0B19  0845               	movf	gpio_pin_direction_initialize@pin_config^(0+128),w
  2485     0B1A  0084               	movwf	4
  2486     0B1B  1383               	bcf	3,7	;select IRP bank0
  2487     0B1C  0C00               	rrf	0,w
  2488     0B1D  00BF               	movwf	??_gpio_pin_direction_initialize^(0+128)
  2489     0B1E  0CBF               	rrf	??_gpio_pin_direction_initialize^(0+128),f
  2490     0B1F  0C3F               	rrf	??_gpio_pin_direction_initialize^(0+128),w
  2491     0B20  3907               	andlw	7
  2492     0B21  00C0               	movwf	(??_gpio_pin_direction_initialize+1)^(0+128)
  2493     0B22  3008               	movlw	8
  2494     0B23  0240               	subwf	(??_gpio_pin_direction_initialize+1)^(0+128),w
  2495     0B24  1C03               	skipc
  2496     0B25  2B27               	goto	u4111
  2497     0B26  2B28               	goto	u4110
  2498     0B27                     u4111:
  2499     0B27  2B7B               	goto	l3358
  2500     0B28                     u4110:
  2501     0B28                     l3346:
  2502                           
  2503                           ;MCAL_Layer/GPIO/hal_gpio.c: 12:     {;MCAL_Layer/GPIO/hal_gpio.c: 13:         ret = (st
      +                          d_ReturnType)0X00;;
  2504     0B28  01C4               	clrf	gpio_pin_direction_initialize@ret^(0+128)
  2505                           
  2506                           ;MCAL_Layer/GPIO/hal_gpio.c: 14:     }
  2507     0B29  2B8F               	goto	l3360
  2508     0B2A                     l3348:
  2509                           
  2510                           ;MCAL_Layer/GPIO/hal_gpio.c: 20:                  (*tris_registers[pin_config->port] &= 
      +                          ~((uint8)0x01 << pin_config->pin));
  2511     0B2A  3001               	movlw	1
  2512     0B2B  00BF               	movwf	??_gpio_pin_direction_initialize^(0+128)
  2513     0B2C  0845               	movf	gpio_pin_direction_initialize@pin_config^(0+128),w
  2514     0B2D  0084               	movwf	4
  2515     0B2E  0C00               	rrf	0,w
  2516     0B2F  00C0               	movwf	(??_gpio_pin_direction_initialize+1)^(0+128)
  2517     0B30  0CC0               	rrf	(??_gpio_pin_direction_initialize+1)^(0+128),f
  2518     0B31  0C40               	rrf	(??_gpio_pin_direction_initialize+1)^(0+128),w
  2519     0B32  3907               	andlw	7
  2520     0B33  3E01               	addlw	1
  2521     0B34  2B37               	goto	u4124
  2522     0B35                     u4125:
  2523     0B35  1003               	clrc
  2524     0B36  0DBF               	rlf	??_gpio_pin_direction_initialize^(0+128),f
  2525     0B37                     u4124:
  2526     0B37  3EFF               	addlw	-1
  2527     0B38  1D03               	skipz
  2528     0B39  2B35               	goto	u4125
  2529     0B3A  083F               	movf	??_gpio_pin_direction_initialize^(0+128),w
  2530     0B3B  3AFF               	xorlw	255
  2531     0B3C  00FF               	movwf	btemp+1
  2532     0B3D  0845               	movf	gpio_pin_direction_initialize@pin_config^(0+128),w
  2533     0B3E  0084               	movwf	4
  2534     0B3F  0800               	movf	0,w
  2535     0B40  3907               	andlw	7
  2536     0B41  00C1               	movwf	(??_gpio_pin_direction_initialize+2)^(0+128)
  2537     0B42  0741               	addwf	(??_gpio_pin_direction_initialize+2)^(0+128),w
  2538     0B43  3EAA               	addlw	(low (_tris_registers| 0))& (0+255)
  2539     0B44  0084               	movwf	4
  2540     0B45  0800               	movf	0,w
  2541     0B46  00C2               	movwf	(??_gpio_pin_direction_initialize+3)^(0+128)
  2542     0B47  0A84               	incf	4,f
  2543     0B48  0800               	movf	0,w
  2544     0B49  00C3               	movwf	((??_gpio_pin_direction_initialize+3)^(0+128)+1)
  2545     0B4A  0842               	movf	(??_gpio_pin_direction_initialize+3)^(0+128),w
  2546     0B4B  0084               	movwf	4
  2547     0B4C  1783               	bsf	3,7
  2548     0B4D  1C43               	btfss	(??_gpio_pin_direction_initialize+4)^(0+128),0
  2549     0B4E  1383               	bcf	3,7
  2550     0B4F  087F               	movf	btemp+1,w
  2551     0B50  0580               	andwf	0,f
  2552     0B51                     l3350:
  2553                           
  2554                           ;MCAL_Layer/GPIO/hal_gpio.c: 21:                  ret = (std_ReturnType)0X01;;
  2555     0B51  01C4               	clrf	gpio_pin_direction_initialize@ret^(0+128)
  2556     0B52  0AC4               	incf	gpio_pin_direction_initialize@ret^(0+128),f
  2557                           
  2558                           ;MCAL_Layer/GPIO/hal_gpio.c: 22:                  break;
  2559     0B53  2B8F               	goto	l3360
  2560     0B54                     l3352:
  2561                           
  2562                           ;MCAL_Layer/GPIO/hal_gpio.c: 24:                  (*tris_registers[pin_config->port] |= 
      +                          ((uint8)0x01 << pin_config->pin));
  2563     0B54  3001               	movlw	1
  2564     0B55  00BF               	movwf	??_gpio_pin_direction_initialize^(0+128)
  2565     0B56  0845               	movf	gpio_pin_direction_initialize@pin_config^(0+128),w
  2566     0B57  0084               	movwf	4
  2567     0B58  0C00               	rrf	0,w
  2568     0B59  00C0               	movwf	(??_gpio_pin_direction_initialize+1)^(0+128)
  2569     0B5A  0CC0               	rrf	(??_gpio_pin_direction_initialize+1)^(0+128),f
  2570     0B5B  0C40               	rrf	(??_gpio_pin_direction_initialize+1)^(0+128),w
  2571     0B5C  3907               	andlw	7
  2572     0B5D  3E01               	addlw	1
  2573     0B5E  2B61               	goto	u4134
  2574     0B5F                     u4135:
  2575     0B5F  1003               	clrc
  2576     0B60  0DBF               	rlf	??_gpio_pin_direction_initialize^(0+128),f
  2577     0B61                     u4134:
  2578     0B61  3EFF               	addlw	-1
  2579     0B62  1D03               	skipz
  2580     0B63  2B5F               	goto	u4135
  2581     0B64  083F               	movf	??_gpio_pin_direction_initialize^(0+128),w
  2582     0B65  00FF               	movwf	btemp+1
  2583     0B66  0845               	movf	gpio_pin_direction_initialize@pin_config^(0+128),w
  2584     0B67  0084               	movwf	4
  2585     0B68  0800               	movf	0,w
  2586     0B69  3907               	andlw	7
  2587     0B6A  00C1               	movwf	(??_gpio_pin_direction_initialize+2)^(0+128)
  2588     0B6B  0741               	addwf	(??_gpio_pin_direction_initialize+2)^(0+128),w
  2589     0B6C  3EAA               	addlw	(low (_tris_registers| 0))& (0+255)
  2590     0B6D  0084               	movwf	4
  2591     0B6E  0800               	movf	0,w
  2592     0B6F  00C2               	movwf	(??_gpio_pin_direction_initialize+3)^(0+128)
  2593     0B70  0A84               	incf	4,f
  2594     0B71  0800               	movf	0,w
  2595     0B72  00C3               	movwf	((??_gpio_pin_direction_initialize+3)^(0+128)+1)
  2596     0B73  0842               	movf	(??_gpio_pin_direction_initialize+3)^(0+128),w
  2597     0B74  0084               	movwf	4
  2598     0B75  1783               	bsf	3,7
  2599     0B76  1C43               	btfss	(??_gpio_pin_direction_initialize+4)^(0+128),0
  2600     0B77  1383               	bcf	3,7
  2601     0B78  087F               	movf	btemp+1,w
  2602     0B79  0480               	iorwf	0,f
  2603     0B7A  2B51               	goto	l3350
  2604     0B7B                     l3358:
  2605     0B7B  0845               	movf	gpio_pin_direction_initialize@pin_config^(0+128),w
  2606     0B7C  0084               	movwf	4
  2607     0B7D  0D00               	rlf	0,w
  2608     0B7E  0D00               	rlf	0,w
  2609     0B7F  3901               	andlw	1
  2610     0B80  00BF               	movwf	??_gpio_pin_direction_initialize^(0+128)
  2611     0B81  01C0               	clrf	(??_gpio_pin_direction_initialize^(0+128)+1)
  2612                           
  2613                           ; Switch on 2 bytes has been partitioned into a top level switch of size 1, and 1 sub-sw
      +                          itches
  2614                           ; Switch size 1, requested type "simple"
  2615                           ; Number of cases is 1, Range of values is 0 to 0
  2616                           ; switch strategies available:
  2617                           ; Name         Instructions Cycles
  2618                           ; simple_byte            4     3 (average)
  2619                           ; direct_byte           11     8 (fixed)
  2620                           ; jumptable            260     6 (fixed)
  2621                           ;	Chosen strategy is simple_byte
  2622     0B82  0840               	movf	(??_gpio_pin_direction_initialize+1)^(0+128),w
  2623     0B83  3A00               	xorlw	0	; case 0
  2624     0B84  1903               	skipnz
  2625     0B85  2B87               	goto	l3806
  2626     0B86  2B28               	goto	l3346
  2627     0B87                     l3806:
  2628                           
  2629                           ; Switch size 1, requested type "simple"
  2630                           ; Number of cases is 2, Range of values is 0 to 1
  2631                           ; switch strategies available:
  2632                           ; Name         Instructions Cycles
  2633                           ; simple_byte            7     4 (average)
  2634                           ; direct_byte           14     8 (fixed)
  2635                           ; jumptable            260     6 (fixed)
  2636                           ;	Chosen strategy is simple_byte
  2637     0B87  083F               	movf	??_gpio_pin_direction_initialize^(0+128),w
  2638     0B88  3A00               	xorlw	0	; case 0
  2639     0B89  1903               	skipnz
  2640     0B8A  2B2A               	goto	l3348
  2641     0B8B  3A01               	xorlw	1	; case 1
  2642     0B8C  1903               	skipnz
  2643     0B8D  2B54               	goto	l3352
  2644     0B8E  2B28               	goto	l3346
  2645     0B8F                     l3360:
  2646                           
  2647                           ;MCAL_Layer/GPIO/hal_gpio.c: 31:     return ret;
  2648     0B8F  0844               	movf	gpio_pin_direction_initialize@ret^(0+128),w
  2649     0B90                     l104:
  2650     0B90  0008               	return
  2651     0B91                     __end_of_gpio_pin_direction_initialize:
  2652                           
  2653                           	psect	text10
  2654     097F                     __ptext10:	
  2655 ;; *************** function _ccp2_init *****************
  2656 ;; Defined at:
  2657 ;;		line 64 in file "MCAL_Layer/CCP/hal_ccp.c"
  2658 ;; Parameters:    Size  Location     Type
  2659 ;;  ccp2_obj        1    wreg     PTR const struct .
  2660 ;;		 -> ccp2(2), 
  2661 ;; Auto vars:     Size  Location     Type
  2662 ;;  ccp2_obj        1    1[BANK1 ] PTR const struct .
  2663 ;;		 -> ccp2(2), 
  2664 ;;  ret             1    0        unsigned char 
  2665 ;; Return value:  Size  Location     Type
  2666 ;;                  1    wreg      unsigned char 
  2667 ;; Registers used:
  2668 ;;		wreg, fsr0l, fsr0h, status,2, status,0, pclath, cstack
  2669 ;; Tracked objects:
  2670 ;;		On entry : 0/0
  2671 ;;		On exit  : 0/0
  2672 ;;		Unchanged: 0/0
  2673 ;; Data sizes:     COMMON   BANK0   BANK1   BANK3   BANK2
  2674 ;;      Params:         0       0       0       0       0
  2675 ;;      Locals:         0       0       1       0       0
  2676 ;;      Temps:          0       0       1       0       0
  2677 ;;      Totals:         0       0       2       0       0
  2678 ;;Total ram usage:        2 bytes
  2679 ;; Hardware stack levels used: 1
  2680 ;; Hardware stack levels required when called: 6
  2681 ;; This function calls:
  2682 ;;		_all_interrupt_disable
  2683 ;;		_all_interrupt_enable
  2684 ;; This function is called by:
  2685 ;;		_sensor_initialize
  2686 ;;		_servo_initialize
  2687 ;; This function uses a non-reentrant model
  2688 ;;
  2689                           
  2690     097F                     _ccp2_init:	
  2691                           ;psect for function _ccp2_init
  2692                           
  2693                           
  2694                           ;incstack = 0
  2695                           ; Regs used in _ccp2_init: [wreg-fsr0h+status,2+status,0+pclath+cstack]
  2696                           ;ccp2_init@ccp2_obj stored from wreg
  2697     097F  1683               	bsf	3,5	;RP0=1, select bank1
  2698     0980  1303               	bcf	3,6	;RP1=0, select bank1
  2699     0981  00C0               	movwf	ccp2_init@ccp2_obj^(0+128)
  2700     0982                     l3450:
  2701     0982                     l3452:
  2702                           
  2703                           ;MCAL_Layer/CCP/hal_ccp.c: 67:     if(((void*)0) == ccp2_obj)
  2704     0982  0840               	movf	ccp2_init@ccp2_obj^(0+128),w
  2705     0983  1D03               	btfss	3,2
  2706     0984  2986               	goto	u4251
  2707     0985  2987               	goto	u4250
  2708     0986                     u4251:
  2709     0986  2988               	goto	l50
  2710     0987                     u4250:
  2711     0987                     l3454:
  2712                           
  2713                           ;MCAL_Layer/CCP/hal_ccp.c: 70:     }
  2714     0987  29CC               	goto	l55
  2715     0988                     l50:	
  2716                           ;MCAL_Layer/CCP/hal_ccp.c: 71:     else
  2717                           
  2718     0988                     l3456:
  2719                           
  2720                           ;MCAL_Layer/CCP/hal_ccp.c: 74:         (CCP2CONbits.CCP2M = 0);
  2721     0988  30F0               	movlw	-16
  2722     0989  1283               	bcf	3,5	;RP0=0, select bank0
  2723     098A  1303               	bcf	3,6	;RP1=0, select bank0
  2724     098B  059D               	andwf	29,f	;volatile
  2725     098C                     l3458:
  2726                           
  2727                           ;MCAL_Layer/CCP/hal_ccp.c: 76:         (PIE2bits.CCP2IE = 0);
  2728     098C  1683               	bsf	3,5	;RP0=1, select bank1
  2729     098D  1303               	bcf	3,6	;RP1=0, select bank1
  2730     098E  100D               	bcf	13,0	;volatile
  2731     098F                     l3460:
  2732                           
  2733                           ;MCAL_Layer/CCP/hal_ccp.c: 77:          all_interrupt_disable();
  2734     098F  160A  118A  27B9  120A  158A  	fcall	_all_interrupt_disable
  2735     0994                     l3462:
  2736                           
  2737                           ;MCAL_Layer/CCP/hal_ccp.c: 78:          (PIR2bits.CCP2IF = 0);
  2738     0994  1283               	bcf	3,5	;RP0=0, select bank0
  2739     0995  1303               	bcf	3,6	;RP1=0, select bank0
  2740     0996  100D               	bcf	13,0	;volatile
  2741     0997                     l3464:
  2742                           
  2743                           ;MCAL_Layer/CCP/hal_ccp.c: 79:          ccp2_InterruptHandler = ccp2_obj->CCP2_Interrupt
      +                          Handler;
  2744     0997  1683               	bsf	3,5	;RP0=1, select bank1
  2745     0998  1303               	bcf	3,6	;RP1=0, select bank1
  2746     0999  0840               	movf	ccp2_init@ccp2_obj^(0+128),w
  2747     099A  0084               	movwf	4
  2748     099B  1383               	bcf	3,7	;select IRP bank0
  2749     099C  0800               	movf	0,w
  2750     099D  00DC               	movwf	_ccp2_InterruptHandler^(0+128)
  2751     099E                     l3466:
  2752                           
  2753                           ;MCAL_Layer/CCP/hal_ccp.c: 80:          (PIE2bits.CCP2IE = 1);
  2754     099E  140D               	bsf	13,0	;volatile
  2755     099F                     l3468:
  2756                           
  2757                           ;MCAL_Layer/CCP/hal_ccp.c: 81:          all_interrupt_enable();
  2758     099F  160A  118A  27BC  120A  158A  	fcall	_all_interrupt_enable
  2759     09A4                     l3470:
  2760                           
  2761                           ;MCAL_Layer/CCP/hal_ccp.c: 83:        (CCP2CONbits.CCP2M = ccp2_obj->mode);
  2762     09A4  1683               	bsf	3,5	;RP0=1, select bank1
  2763     09A5  1303               	bcf	3,6	;RP1=0, select bank1
  2764     09A6  0A40               	incf	ccp2_init@ccp2_obj^(0+128),w
  2765     09A7  0084               	movwf	4
  2766     09A8  1383               	bcf	3,7	;select IRP bank0
  2767     09A9  0800               	movf	0,w
  2768     09AA  390F               	andlw	15
  2769     09AB  00BF               	movwf	??_ccp2_init^(0+128)
  2770     09AC  1283               	bcf	3,5	;RP0=0, select bank0
  2771     09AD  1303               	bcf	3,6	;RP1=0, select bank0
  2772     09AE  081D               	movf	29,w	;volatile
  2773     09AF  1683               	bsf	3,5	;RP0=1, select bank1
  2774     09B0  1303               	bcf	3,6	;RP1=0, select bank1
  2775     09B1  063F               	xorwf	??_ccp2_init^(0+128),w
  2776     09B2  39F0               	andlw	-16
  2777     09B3  063F               	xorwf	??_ccp2_init^(0+128),w
  2778     09B4  1283               	bcf	3,5	;RP0=0, select bank0
  2779     09B5  1303               	bcf	3,6	;RP1=0, select bank0
  2780     09B6  009D               	movwf	29	;volatile
  2781     09B7                     l3472:
  2782                           
  2783                           ;MCAL_Layer/CCP/hal_ccp.c: 84:        if((4 == ccp2_obj->mode)
  2784     09B7  1683               	bsf	3,5	;RP0=1, select bank1
  2785     09B8  1303               	bcf	3,6	;RP1=0, select bank1
  2786     09B9  0A40               	incf	ccp2_init@ccp2_obj^(0+128),w
  2787     09BA  0084               	movwf	4
  2788     09BB  0800               	movf	0,w
  2789     09BC  390F               	andlw	15
  2790     09BD  3A04               	xorlw	4
  2791     09BE  1903               	skipnz
  2792     09BF  29C1               	goto	u4261
  2793     09C0  29C2               	goto	u4260
  2794     09C1                     u4261:
  2795     09C1  29CB               	goto	l54
  2796     09C2                     u4260:
  2797     09C2                     l3474:
  2798     09C2  0A40               	incf	ccp2_init@ccp2_obj^(0+128),w
  2799     09C3  0084               	movwf	4
  2800     09C4  0800               	movf	0,w
  2801     09C5  390F               	andlw	15
  2802     09C6  3A05               	xorlw	5
  2803     09C7  1D03               	skipz
  2804     09C8  29CA               	goto	u4271
  2805     09C9  29CB               	goto	u4270
  2806     09CA                     u4271:
  2807     09CA  29CC               	goto	l55
  2808     09CB                     u4270:
  2809     09CB                     l54:
  2810                           
  2811                           ;MCAL_Layer/CCP/hal_ccp.c: 86:        {;MCAL_Layer/CCP/hal_ccp.c: 87:            TRISCbi
      +                          ts.TRISC1 = 1;
  2812     09CB  1487               	bsf	7,1	;volatile
  2813     09CC                     l55:
  2814     09CC  0008               	return
  2815     09CD                     __end_of_ccp2_init:
  2816                           
  2817                           	psect	text11
  2818     09CD                     __ptext11:	
  2819 ;; *************** function _ccp1_init *****************
  2820 ;; Defined at:
  2821 ;;		line 5 in file "MCAL_Layer/CCP/hal_ccp.c"
  2822 ;; Parameters:    Size  Location     Type
  2823 ;;  ccp1_obj        1    wreg     PTR const struct .
  2824 ;;		 -> ccp1(2), 
  2825 ;; Auto vars:     Size  Location     Type
  2826 ;;  ccp1_obj        1    1[BANK1 ] PTR const struct .
  2827 ;;		 -> ccp1(2), 
  2828 ;;  ret             1    0        unsigned char 
  2829 ;; Return value:  Size  Location     Type
  2830 ;;                  1    wreg      unsigned char 
  2831 ;; Registers used:
  2832 ;;		wreg, fsr0l, fsr0h, status,2, status,0, pclath, cstack
  2833 ;; Tracked objects:
  2834 ;;		On entry : 0/0
  2835 ;;		On exit  : 0/0
  2836 ;;		Unchanged: 0/0
  2837 ;; Data sizes:     COMMON   BANK0   BANK1   BANK3   BANK2
  2838 ;;      Params:         0       0       0       0       0
  2839 ;;      Locals:         0       0       1       0       0
  2840 ;;      Temps:          0       0       1       0       0
  2841 ;;      Totals:         0       0       2       0       0
  2842 ;;Total ram usage:        2 bytes
  2843 ;; Hardware stack levels used: 1
  2844 ;; Hardware stack levels required when called: 6
  2845 ;; This function calls:
  2846 ;;		_all_interrupt_disable
  2847 ;;		_all_interrupt_enable
  2848 ;; This function is called by:
  2849 ;;		_sensor_initialize
  2850 ;;		_servo_initialize
  2851 ;; This function uses a non-reentrant model
  2852 ;;
  2853                           
  2854     09CD                     _ccp1_init:	
  2855                           ;psect for function _ccp1_init
  2856                           
  2857                           
  2858                           ;incstack = 0
  2859                           ; Regs used in _ccp1_init: [wreg-fsr0h+status,2+status,0+pclath+cstack]
  2860                           ;ccp1_init@ccp1_obj stored from wreg
  2861     09CD  1683               	bsf	3,5	;RP0=1, select bank1
  2862     09CE  1303               	bcf	3,6	;RP1=0, select bank1
  2863     09CF  00C0               	movwf	ccp1_init@ccp1_obj^(0+128)
  2864     09D0                     l3424:
  2865     09D0                     l3426:
  2866                           
  2867                           ;MCAL_Layer/CCP/hal_ccp.c: 8:     if(((void*)0) == ccp1_obj)
  2868     09D0  0840               	movf	ccp1_init@ccp1_obj^(0+128),w
  2869     09D1  1D03               	btfss	3,2
  2870     09D2  29D4               	goto	u4221
  2871     09D3  29D5               	goto	u4220
  2872     09D4                     u4221:
  2873     09D4  29D6               	goto	l27
  2874     09D5                     u4220:
  2875     09D5                     l3428:
  2876                           
  2877                           ;MCAL_Layer/CCP/hal_ccp.c: 11:     }
  2878     09D5  2A1E               	goto	l32
  2879     09D6                     l27:	
  2880                           ;MCAL_Layer/CCP/hal_ccp.c: 12:     else
  2881                           
  2882     09D6                     l3430:
  2883                           
  2884                           ;MCAL_Layer/CCP/hal_ccp.c: 15:         (CCP1CONbits.CCP1M = 0);
  2885     09D6  30F0               	movlw	-16
  2886     09D7  1283               	bcf	3,5	;RP0=0, select bank0
  2887     09D8  1303               	bcf	3,6	;RP1=0, select bank0
  2888     09D9  0597               	andwf	23,f	;volatile
  2889     09DA                     l3432:
  2890                           
  2891                           ;MCAL_Layer/CCP/hal_ccp.c: 17:         (PIE1bits.CCP1IE = 0);
  2892     09DA  1683               	bsf	3,5	;RP0=1, select bank1
  2893     09DB  1303               	bcf	3,6	;RP1=0, select bank1
  2894     09DC  110C               	bcf	12,2	;volatile
  2895     09DD                     l3434:
  2896                           
  2897                           ;MCAL_Layer/CCP/hal_ccp.c: 18:          all_interrupt_disable();
  2898     09DD  160A  118A  27B9  120A  158A  	fcall	_all_interrupt_disable
  2899     09E2                     l3436:
  2900                           
  2901                           ;MCAL_Layer/CCP/hal_ccp.c: 19:          (PIR1bits.CCP1IF = 0);
  2902     09E2  1283               	bcf	3,5	;RP0=0, select bank0
  2903     09E3  1303               	bcf	3,6	;RP1=0, select bank0
  2904     09E4  110C               	bcf	12,2	;volatile
  2905     09E5                     l3438:
  2906                           
  2907                           ;MCAL_Layer/CCP/hal_ccp.c: 20:          ccp1_InterruptHandler = ccp1_obj->CCP1_Interrupt
      +                          Handler;
  2908     09E5  1683               	bsf	3,5	;RP0=1, select bank1
  2909     09E6  1303               	bcf	3,6	;RP1=0, select bank1
  2910     09E7  0840               	movf	ccp1_init@ccp1_obj^(0+128),w
  2911     09E8  0084               	movwf	4
  2912     09E9  1383               	bcf	3,7	;select IRP bank0
  2913     09EA  0800               	movf	0,w
  2914     09EB  1283               	bcf	3,5	;RP0=0, select bank0
  2915     09EC  1303               	bcf	3,6	;RP1=0, select bank0
  2916     09ED  00E6               	movwf	_ccp1_InterruptHandler
  2917     09EE                     l3440:
  2918                           
  2919                           ;MCAL_Layer/CCP/hal_ccp.c: 21:          (PIE1bits.CCP1IE = 1);
  2920     09EE  1683               	bsf	3,5	;RP0=1, select bank1
  2921     09EF  1303               	bcf	3,6	;RP1=0, select bank1
  2922     09F0  150C               	bsf	12,2	;volatile
  2923     09F1                     l3442:
  2924                           
  2925                           ;MCAL_Layer/CCP/hal_ccp.c: 22:          all_interrupt_enable();
  2926     09F1  160A  118A  27BC  120A  158A  	fcall	_all_interrupt_enable
  2927     09F6                     l3444:
  2928                           
  2929                           ;MCAL_Layer/CCP/hal_ccp.c: 24:        (CCP1CONbits.CCP1M = ccp1_obj->mode);
  2930     09F6  1683               	bsf	3,5	;RP0=1, select bank1
  2931     09F7  1303               	bcf	3,6	;RP1=0, select bank1
  2932     09F8  0A40               	incf	ccp1_init@ccp1_obj^(0+128),w
  2933     09F9  0084               	movwf	4
  2934     09FA  1383               	bcf	3,7	;select IRP bank0
  2935     09FB  0800               	movf	0,w
  2936     09FC  390F               	andlw	15
  2937     09FD  00BF               	movwf	??_ccp1_init^(0+128)
  2938     09FE  1283               	bcf	3,5	;RP0=0, select bank0
  2939     09FF  1303               	bcf	3,6	;RP1=0, select bank0
  2940     0A00  0817               	movf	23,w	;volatile
  2941     0A01  1683               	bsf	3,5	;RP0=1, select bank1
  2942     0A02  1303               	bcf	3,6	;RP1=0, select bank1
  2943     0A03  063F               	xorwf	??_ccp1_init^(0+128),w
  2944     0A04  39F0               	andlw	-16
  2945     0A05  063F               	xorwf	??_ccp1_init^(0+128),w
  2946     0A06  1283               	bcf	3,5	;RP0=0, select bank0
  2947     0A07  1303               	bcf	3,6	;RP1=0, select bank0
  2948     0A08  0097               	movwf	23	;volatile
  2949     0A09                     l3446:
  2950                           
  2951                           ;MCAL_Layer/CCP/hal_ccp.c: 25:        if((4 == ccp1_obj->mode)
  2952     0A09  1683               	bsf	3,5	;RP0=1, select bank1
  2953     0A0A  1303               	bcf	3,6	;RP1=0, select bank1
  2954     0A0B  0A40               	incf	ccp1_init@ccp1_obj^(0+128),w
  2955     0A0C  0084               	movwf	4
  2956     0A0D  0800               	movf	0,w
  2957     0A0E  390F               	andlw	15
  2958     0A0F  3A04               	xorlw	4
  2959     0A10  1903               	skipnz
  2960     0A11  2A13               	goto	u4231
  2961     0A12  2A14               	goto	u4230
  2962     0A13                     u4231:
  2963     0A13  2A1D               	goto	l31
  2964     0A14                     u4230:
  2965     0A14                     l3448:
  2966     0A14  0A40               	incf	ccp1_init@ccp1_obj^(0+128),w
  2967     0A15  0084               	movwf	4
  2968     0A16  0800               	movf	0,w
  2969     0A17  390F               	andlw	15
  2970     0A18  3A05               	xorlw	5
  2971     0A19  1D03               	skipz
  2972     0A1A  2A1C               	goto	u4241
  2973     0A1B  2A1D               	goto	u4240
  2974     0A1C                     u4241:
  2975     0A1C  2A1E               	goto	l32
  2976     0A1D                     u4240:
  2977     0A1D                     l31:
  2978                           
  2979                           ;MCAL_Layer/CCP/hal_ccp.c: 27:        {;MCAL_Layer/CCP/hal_ccp.c: 28:            TRISCbi
      +                          ts.TRISC2 = 1;
  2980     0A1D  1507               	bsf	7,2	;volatile
  2981     0A1E                     l32:
  2982     0A1E  0008               	return
  2983     0A1F                     __end_of_ccp1_init:
  2984                           
  2985                           	psect	text12
  2986     17BC                     __ptext12:	
  2987 ;; *************** function _all_interrupt_enable *****************
  2988 ;; Defined at:
  2989 ;;		line 3 in file "MCAL_Layer/Interrupt/mcal_internal_interrupt.c"
  2990 ;; Parameters:    Size  Location     Type
  2991 ;;		None
  2992 ;; Auto vars:     Size  Location     Type
  2993 ;;		None
  2994 ;; Return value:  Size  Location     Type
  2995 ;;                  1    wreg      void 
  2996 ;; Registers used:
  2997 ;;		None
  2998 ;; Tracked objects:
  2999 ;;		On entry : 0/0
  3000 ;;		On exit  : 0/0
  3001 ;;		Unchanged: 0/0
  3002 ;; Data sizes:     COMMON   BANK0   BANK1   BANK3   BANK2
  3003 ;;      Params:         0       0       0       0       0
  3004 ;;      Locals:         0       0       0       0       0
  3005 ;;      Temps:          0       0       0       0       0
  3006 ;;      Totals:         0       0       0       0       0
  3007 ;;Total ram usage:        0 bytes
  3008 ;; Hardware stack levels used: 1
  3009 ;; Hardware stack levels required when called: 5
  3010 ;; This function calls:
  3011 ;;		Nothing
  3012 ;; This function is called by:
  3013 ;;		_ccp1_init
  3014 ;;		_ccp2_init
  3015 ;;		_timer1_inti
  3016 ;; This function uses a non-reentrant model
  3017 ;;
  3018                           
  3019     17BC                     _all_interrupt_enable:	
  3020                           ;psect for function _all_interrupt_enable
  3021                           
  3022     17BC                     l2160:	
  3023                           ;incstack = 0
  3024                           ; Regs used in _all_interrupt_enable: []
  3025                           
  3026                           
  3027                           ;MCAL_Layer/Interrupt/mcal_internal_interrupt.c: 5:     (INTCONbits.GIE = 1);
  3028     17BC  178B               	bsf	11,7	;volatile
  3029                           
  3030                           ;MCAL_Layer/Interrupt/mcal_internal_interrupt.c: 6:     (INTCONbits.PEIE = 1);
  3031     17BD  170B               	bsf	11,6	;volatile
  3032     17BE                     l178:
  3033     17BE  0008               	return
  3034     17BF                     __end_of_all_interrupt_enable:
  3035                           
  3036                           	psect	text13
  3037     17B9                     __ptext13:	
  3038 ;; *************** function _all_interrupt_disable *****************
  3039 ;; Defined at:
  3040 ;;		line 8 in file "MCAL_Layer/Interrupt/mcal_internal_interrupt.c"
  3041 ;; Parameters:    Size  Location     Type
  3042 ;;		None
  3043 ;; Auto vars:     Size  Location     Type
  3044 ;;		None
  3045 ;; Return value:  Size  Location     Type
  3046 ;;                  1    wreg      void 
  3047 ;; Registers used:
  3048 ;;		None
  3049 ;; Tracked objects:
  3050 ;;		On entry : 0/0
  3051 ;;		On exit  : 0/0
  3052 ;;		Unchanged: 0/0
  3053 ;; Data sizes:     COMMON   BANK0   BANK1   BANK3   BANK2
  3054 ;;      Params:         0       0       0       0       0
  3055 ;;      Locals:         0       0       0       0       0
  3056 ;;      Temps:          0       0       0       0       0
  3057 ;;      Totals:         0       0       0       0       0
  3058 ;;Total ram usage:        0 bytes
  3059 ;; Hardware stack levels used: 1
  3060 ;; Hardware stack levels required when called: 5
  3061 ;; This function calls:
  3062 ;;		Nothing
  3063 ;; This function is called by:
  3064 ;;		_ccp1_init
  3065 ;;		_ccp2_init
  3066 ;;		_timer1_inti
  3067 ;; This function uses a non-reentrant model
  3068 ;;
  3069                           
  3070     17B9                     _all_interrupt_disable:	
  3071                           ;psect for function _all_interrupt_disable
  3072                           
  3073     17B9                     l2158:	
  3074                           ;incstack = 0
  3075                           ; Regs used in _all_interrupt_disable: []
  3076                           
  3077                           
  3078                           ;MCAL_Layer/Interrupt/mcal_internal_interrupt.c: 10:     (INTCONbits.GIE = 0);
  3079     17B9  138B               	bcf	11,7	;volatile
  3080                           
  3081                           ;MCAL_Layer/Interrupt/mcal_internal_interrupt.c: 11:     (INTCONbits.PEIE = 0);
  3082     17BA  130B               	bcf	11,6	;volatile
  3083     17BB                     l181:
  3084     17BB  0008               	return
  3085     17BC                     __end_of_all_interrupt_disable:
  3086                           
  3087                           	psect	text14
  3088     0C2B                     __ptext14:	
  3089 ;; *************** function ___flge *****************
  3090 ;; Defined at:
  3091 ;;		line 4 in file "C:\Program Files\Microchip\xc8\v2.45\pic\sources\c99\common\flge.c"
  3092 ;; Parameters:    Size  Location     Type
  3093 ;;  ff1             4    0[BANK1 ] void 
  3094 ;;  ff2             4    4[BANK1 ] void 
  3095 ;; Auto vars:     Size  Location     Type
  3096 ;;		None
  3097 ;; Return value:  Size  Location     Type
  3098 ;;		None               void
  3099 ;; Registers used:
  3100 ;;		wreg, status,2, status,0
  3101 ;; Tracked objects:
  3102 ;;		On entry : 0/0
  3103 ;;		On exit  : 0/0
  3104 ;;		Unchanged: 0/0
  3105 ;; Data sizes:     COMMON   BANK0   BANK1   BANK3   BANK2
  3106 ;;      Params:         0       0       8       0       0
  3107 ;;      Locals:         0       0       0       0       0
  3108 ;;      Temps:          0       0       4       0       0
  3109 ;;      Totals:         0       0      12       0       0
  3110 ;;Total ram usage:       12 bytes
  3111 ;; Hardware stack levels used: 1
  3112 ;; Hardware stack levels required when called: 5
  3113 ;; This function calls:
  3114 ;;		Nothing
  3115 ;; This function is called by:
  3116 ;;		_main
  3117 ;; This function uses a non-reentrant model
  3118 ;;
  3119                           
  3120     0C2B                     ___flge:	
  3121                           ;psect for function ___flge
  3122                           
  3123     0C2B                     l3010:	
  3124                           ;incstack = 0
  3125                           ; Regs used in ___flge: [wreg+status,2+status,0]
  3126                           
  3127     0C2B  3000               	movlw	0
  3128     0C2C  1683               	bsf	3,5	;RP0=1, select bank1
  3129     0C2D  1303               	bcf	3,6	;RP1=0, select bank1
  3130     0C2E  053F               	andwf	___flge@ff1^(0+128),w
  3131     0C2F  00C7               	movwf	??___flge^(0+128)
  3132     0C30  3000               	movlw	0
  3133     0C31  0540               	andwf	(___flge@ff1+1)^(0+128),w
  3134     0C32  00C8               	movwf	(??___flge^(0+128)+1)
  3135     0C33  3080               	movlw	128
  3136     0C34  0541               	andwf	(___flge@ff1+2)^(0+128),w
  3137     0C35  00C9               	movwf	(??___flge^(0+128)+2)
  3138     0C36  307F               	movlw	127
  3139     0C37  0542               	andwf	(___flge@ff1+3)^(0+128),w
  3140     0C38  00CA               	movwf	(??___flge^(0+128)+3)
  3141     0C39  084A               	movf	(??___flge+3)^(0+128),w
  3142     0C3A  0449               	iorwf	(??___flge+2)^(0+128),w
  3143     0C3B  0448               	iorwf	(??___flge+1)^(0+128),w
  3144     0C3C  0447               	iorwf	??___flge^(0+128),w
  3145     0C3D  1D03               	skipz
  3146     0C3E  2C40               	goto	u3701
  3147     0C3F  2C41               	goto	u3700
  3148     0C40                     u3701:
  3149     0C40  2C49               	goto	l648
  3150     0C41                     u3700:
  3151     0C41                     l3012:
  3152     0C41  3000               	movlw	0
  3153     0C42  00C2               	movwf	(___flge@ff1+3)^(0+128)
  3154     0C43  3000               	movlw	0
  3155     0C44  00C1               	movwf	(___flge@ff1+2)^(0+128)
  3156     0C45  3000               	movlw	0
  3157     0C46  00C0               	movwf	(___flge@ff1+1)^(0+128)
  3158     0C47  3000               	movlw	0
  3159     0C48  00BF               	movwf	___flge@ff1^(0+128)
  3160     0C49                     l648:
  3161     0C49  3000               	movlw	0
  3162     0C4A  0543               	andwf	___flge@ff2^(0+128),w
  3163     0C4B  00C7               	movwf	??___flge^(0+128)
  3164     0C4C  3000               	movlw	0
  3165     0C4D  0544               	andwf	(___flge@ff2+1)^(0+128),w
  3166     0C4E  00C8               	movwf	(??___flge^(0+128)+1)
  3167     0C4F  3080               	movlw	128
  3168     0C50  0545               	andwf	(___flge@ff2+2)^(0+128),w
  3169     0C51  00C9               	movwf	(??___flge^(0+128)+2)
  3170     0C52  307F               	movlw	127
  3171     0C53  0546               	andwf	(___flge@ff2+3)^(0+128),w
  3172     0C54  00CA               	movwf	(??___flge^(0+128)+3)
  3173     0C55  084A               	movf	(??___flge+3)^(0+128),w
  3174     0C56  0449               	iorwf	(??___flge+2)^(0+128),w
  3175     0C57  0448               	iorwf	(??___flge+1)^(0+128),w
  3176     0C58  0447               	iorwf	??___flge^(0+128),w
  3177     0C59  1D03               	skipz
  3178     0C5A  2C5C               	goto	u3711
  3179     0C5B  2C5D               	goto	u3710
  3180     0C5C                     u3711:
  3181     0C5C  2C65               	goto	l3016
  3182     0C5D                     u3710:
  3183     0C5D                     l3014:
  3184     0C5D  3000               	movlw	0
  3185     0C5E  00C6               	movwf	(___flge@ff2+3)^(0+128)
  3186     0C5F  3000               	movlw	0
  3187     0C60  00C5               	movwf	(___flge@ff2+2)^(0+128)
  3188     0C61  3000               	movlw	0
  3189     0C62  00C4               	movwf	(___flge@ff2+1)^(0+128)
  3190     0C63  3000               	movlw	0
  3191     0C64  00C3               	movwf	___flge@ff2^(0+128)
  3192     0C65                     l3016:
  3193     0C65  1FC2               	btfss	(___flge@ff1+3)^(0+128),7
  3194     0C66  2C68               	goto	u3721
  3195     0C67  2C69               	goto	u3720
  3196     0C68                     u3721:
  3197     0C68  2C8D               	goto	l3020
  3198     0C69                     u3720:
  3199     0C69                     l3018:
  3200     0C69  3000               	movlw	0
  3201     0C6A  00C7               	movwf	??___flge^(0+128)
  3202     0C6B  3000               	movlw	0
  3203     0C6C  00C8               	movwf	(??___flge^(0+128)+1)
  3204     0C6D  3000               	movlw	0
  3205     0C6E  00C9               	movwf	(??___flge^(0+128)+2)
  3206     0C6F  3080               	movlw	128
  3207     0C70  00CA               	movwf	(??___flge^(0+128)+3)
  3208     0C71  083F               	movf	___flge@ff1^(0+128),w
  3209     0C72  02C7               	subwf	??___flge^(0+128),f
  3210     0C73  0840               	movf	(___flge@ff1+1)^(0+128),w
  3211     0C74  1C03               	skipc
  3212     0C75  0F40               	incfsz	(___flge@ff1+1)^(0+128),w
  3213     0C76  2C78               	goto	u3731
  3214     0C77  2C79               	goto	u3732
  3215     0C78                     u3731:
  3216     0C78  02C8               	subwf	(??___flge^(0+128)+1),f
  3217     0C79                     u3732:
  3218     0C79  0841               	movf	(___flge@ff1+2)^(0+128),w
  3219     0C7A  1C03               	skipc
  3220     0C7B  0F41               	incfsz	(___flge@ff1+2)^(0+128),w
  3221     0C7C  2C7E               	goto	u3733
  3222     0C7D  2C7F               	goto	u3734
  3223     0C7E                     u3733:
  3224     0C7E  02C9               	subwf	(??___flge^(0+128)+2),f
  3225     0C7F                     u3734:
  3226     0C7F  0842               	movf	(___flge@ff1+3)^(0+128),w
  3227     0C80  1C03               	skipc
  3228     0C81  0F42               	incfsz	(___flge@ff1+3)^(0+128),w
  3229     0C82  2C84               	goto	u3735
  3230     0C83  2C85               	goto	u3736
  3231     0C84                     u3735:
  3232     0C84  02CA               	subwf	(??___flge^(0+128)+3),f
  3233     0C85                     u3736:
  3234     0C85  084A               	movf	(??___flge+3)^(0+128),w
  3235     0C86  00C2               	movwf	(___flge@ff1+3)^(0+128)
  3236     0C87  0849               	movf	(??___flge+2)^(0+128),w
  3237     0C88  00C1               	movwf	(___flge@ff1+2)^(0+128)
  3238     0C89  0848               	movf	(??___flge+1)^(0+128),w
  3239     0C8A  00C0               	movwf	(___flge@ff1+1)^(0+128)
  3240     0C8B  0847               	movf	??___flge^(0+128),w
  3241     0C8C  00BF               	movwf	___flge@ff1^(0+128)
  3242     0C8D                     l3020:
  3243     0C8D  1FC6               	btfss	(___flge@ff2+3)^(0+128),7
  3244     0C8E  2C90               	goto	u3741
  3245     0C8F  2C91               	goto	u3740
  3246     0C90                     u3741:
  3247     0C90  2CB5               	goto	l651
  3248     0C91                     u3740:
  3249     0C91                     l3022:
  3250     0C91  3000               	movlw	0
  3251     0C92  00C7               	movwf	??___flge^(0+128)
  3252     0C93  3000               	movlw	0
  3253     0C94  00C8               	movwf	(??___flge^(0+128)+1)
  3254     0C95  3000               	movlw	0
  3255     0C96  00C9               	movwf	(??___flge^(0+128)+2)
  3256     0C97  3080               	movlw	128
  3257     0C98  00CA               	movwf	(??___flge^(0+128)+3)
  3258     0C99  0843               	movf	___flge@ff2^(0+128),w
  3259     0C9A  02C7               	subwf	??___flge^(0+128),f
  3260     0C9B  0844               	movf	(___flge@ff2+1)^(0+128),w
  3261     0C9C  1C03               	skipc
  3262     0C9D  0F44               	incfsz	(___flge@ff2+1)^(0+128),w
  3263     0C9E  2CA0               	goto	u3751
  3264     0C9F  2CA1               	goto	u3752
  3265     0CA0                     u3751:
  3266     0CA0  02C8               	subwf	(??___flge^(0+128)+1),f
  3267     0CA1                     u3752:
  3268     0CA1  0845               	movf	(___flge@ff2+2)^(0+128),w
  3269     0CA2  1C03               	skipc
  3270     0CA3  0F45               	incfsz	(___flge@ff2+2)^(0+128),w
  3271     0CA4  2CA6               	goto	u3753
  3272     0CA5  2CA7               	goto	u3754
  3273     0CA6                     u3753:
  3274     0CA6  02C9               	subwf	(??___flge^(0+128)+2),f
  3275     0CA7                     u3754:
  3276     0CA7  0846               	movf	(___flge@ff2+3)^(0+128),w
  3277     0CA8  1C03               	skipc
  3278     0CA9  0F46               	incfsz	(___flge@ff2+3)^(0+128),w
  3279     0CAA  2CAC               	goto	u3755
  3280     0CAB  2CAD               	goto	u3756
  3281     0CAC                     u3755:
  3282     0CAC  02CA               	subwf	(??___flge^(0+128)+3),f
  3283     0CAD                     u3756:
  3284     0CAD  084A               	movf	(??___flge+3)^(0+128),w
  3285     0CAE  00C6               	movwf	(___flge@ff2+3)^(0+128)
  3286     0CAF  0849               	movf	(??___flge+2)^(0+128),w
  3287     0CB0  00C5               	movwf	(___flge@ff2+2)^(0+128)
  3288     0CB1  0848               	movf	(??___flge+1)^(0+128),w
  3289     0CB2  00C4               	movwf	(___flge@ff2+1)^(0+128)
  3290     0CB3  0847               	movf	??___flge^(0+128),w
  3291     0CB4  00C3               	movwf	___flge@ff2^(0+128)
  3292     0CB5                     l651:
  3293     0CB5  3080               	movlw	128
  3294     0CB6  06C2               	xorwf	(___flge@ff1+3)^(0+128),f
  3295     0CB7  3080               	movlw	128
  3296     0CB8  06C6               	xorwf	(___flge@ff2+3)^(0+128),f
  3297     0CB9  0846               	movf	(___flge@ff2+3)^(0+128),w
  3298     0CBA  0242               	subwf	(___flge@ff1+3)^(0+128),w
  3299     0CBB  1D03               	skipz
  3300     0CBC  2CC7               	goto	u3765
  3301     0CBD  0845               	movf	(___flge@ff2+2)^(0+128),w
  3302     0CBE  0241               	subwf	(___flge@ff1+2)^(0+128),w
  3303     0CBF  1D03               	skipz
  3304     0CC0  2CC7               	goto	u3765
  3305     0CC1  0844               	movf	(___flge@ff2+1)^(0+128),w
  3306     0CC2  0240               	subwf	(___flge@ff1+1)^(0+128),w
  3307     0CC3  1D03               	skipz
  3308     0CC4  2CC7               	goto	u3765
  3309     0CC5  0843               	movf	___flge@ff2^(0+128),w
  3310     0CC6  023F               	subwf	___flge@ff1^(0+128),w
  3311     0CC7                     u3765:
  3312     0CC7  1803               	skipnc
  3313     0CC8  2CCA               	goto	u3761
  3314     0CC9  2CCB               	goto	u3760
  3315     0CCA                     u3761:
  3316     0CCA  2CCD               	goto	l3026
  3317     0CCB                     u3760:
  3318     0CCB                     l3024:
  3319     0CCB  1003               	clrc
  3320     0CCC  2CCE               	goto	l656
  3321     0CCD                     l3026:
  3322     0CCD  1403               	setc
  3323     0CCE                     l656:
  3324     0CCE  0008               	return
  3325     0CCF                     __end_of___flge:
  3326                           
  3327                           	psect	text15
  3328     093F                     __ptext15:	
  3329 ;; *************** function _InterruptManager *****************
  3330 ;; Defined at:
  3331 ;;		line 3 in file "MCAL_Layer/Interrupt/mcal_interrupt_manager.c"
  3332 ;; Parameters:    Size  Location     Type
  3333 ;;		None
  3334 ;; Auto vars:     Size  Location     Type
  3335 ;;		None
  3336 ;; Return value:  Size  Location     Type
  3337 ;;                  1    wreg      void 
  3338 ;; Registers used:
  3339 ;;		wreg, fsr0l, fsr0h, status,2, status,0, btemp+1, pclath, cstack
  3340 ;; Tracked objects:
  3341 ;;		On entry : 0/0
  3342 ;;		On exit  : 0/0
  3343 ;;		Unchanged: 0/0
  3344 ;; Data sizes:     COMMON   BANK0   BANK1   BANK3   BANK2
  3345 ;;      Params:         0       0       0       0       0
  3346 ;;      Locals:         0       0       0       0       0
  3347 ;;      Temps:          0       4       0       0       0
  3348 ;;      Totals:         0       4       0       0       0
  3349 ;;Total ram usage:        4 bytes
  3350 ;; Hardware stack levels used: 1
  3351 ;; Hardware stack levels required when called: 4
  3352 ;; This function calls:
  3353 ;;		_CCP1_ISR
  3354 ;;		_CCP2_ISR
  3355 ;;		_TIMER1_ISR
  3356 ;; This function is called by:
  3357 ;;		Interrupt level 1
  3358 ;; This function uses a non-reentrant model
  3359 ;;
  3360                           
  3361     093F                     _InterruptManager:	
  3362                           ;psect for function _InterruptManager
  3363                           
  3364     093F                     i1l3614:
  3365                           
  3366                           ;MCAL_Layer/Interrupt/mcal_interrupt_manager.c: 6:     if((0X01 == PIE1bits.CCP1IE) && (
      +                          0X01 == PIR1bits.CCP1IF))
  3367     093F  1683               	bsf	3,5	;RP0=1, select bank1
  3368     0940  1303               	bcf	3,6	;RP1=0, select bank1
  3369     0941  1D0C               	btfss	12,2	;volatile
  3370     0942  2944               	goto	u440_21
  3371     0943  2945               	goto	u440_20
  3372     0944                     u440_21:
  3373     0944  2950               	goto	i1l201
  3374     0945                     u440_20:
  3375     0945                     i1l3616:
  3376     0945  1283               	bcf	3,5	;RP0=0, select bank0
  3377     0946  1303               	bcf	3,6	;RP1=0, select bank0
  3378     0947  1D0C               	btfss	12,2	;volatile
  3379     0948  294A               	goto	u441_21
  3380     0949  294B               	goto	u441_20
  3381     094A                     u441_21:
  3382     094A  2950               	goto	i1l201
  3383     094B                     u441_20:
  3384     094B                     i1l3618:
  3385                           
  3386                           ;MCAL_Layer/Interrupt/mcal_interrupt_manager.c: 7:     {;MCAL_Layer/Interrupt/mcal_inter
      +                          rupt_manager.c: 8:         CCP1_ISR();
  3387     094B  160A  118A  27F1  120A  158A  	fcall	_CCP1_ISR
  3388     0950                     i1l201:	
  3389                           ;MCAL_Layer/Interrupt/mcal_interrupt_manager.c: 11:     {;MCAL_Layer/Interrupt/mcal_inte
      +                          rrupt_manager.c: 13:     }
  3390                           
  3391                           
  3392                           ;MCAL_Layer/Interrupt/mcal_interrupt_manager.c: 17:     if((0X01 == PIE2bits.CCP2IE) && 
      +                          (0X01 == PIR2bits.CCP2IF))
  3393     0950  1683               	bsf	3,5	;RP0=1, select bank1
  3394     0951  1303               	bcf	3,6	;RP1=0, select bank1
  3395     0952  1C0D               	btfss	13,0	;volatile
  3396     0953  2955               	goto	u442_21
  3397     0954  2956               	goto	u442_20
  3398     0955                     u442_21:
  3399     0955  2961               	goto	i1l203
  3400     0956                     u442_20:
  3401     0956                     i1l3620:
  3402     0956  1283               	bcf	3,5	;RP0=0, select bank0
  3403     0957  1303               	bcf	3,6	;RP1=0, select bank0
  3404     0958  1C0D               	btfss	13,0	;volatile
  3405     0959  295B               	goto	u443_21
  3406     095A  295C               	goto	u443_20
  3407     095B                     u443_21:
  3408     095B  2961               	goto	i1l203
  3409     095C                     u443_20:
  3410     095C                     i1l3622:
  3411                           
  3412                           ;MCAL_Layer/Interrupt/mcal_interrupt_manager.c: 18:     {;MCAL_Layer/Interrupt/mcal_inte
      +                          rrupt_manager.c: 19:         CCP2_ISR();
  3413     095C  120A  158A  2002  120A  158A  	fcall	_CCP2_ISR
  3414     0961                     i1l203:	
  3415                           ;MCAL_Layer/Interrupt/mcal_interrupt_manager.c: 22:     {;MCAL_Layer/Interrupt/mcal_inte
      +                          rrupt_manager.c: 24:     }
  3416                           
  3417                           
  3418                           ;MCAL_Layer/Interrupt/mcal_interrupt_manager.c: 28:     if((0X01 == PIE1bits.TMR1IE) && 
      +                          (0X01 == PIR1bits.TMR1IF))
  3419     0961  1683               	bsf	3,5	;RP0=1, select bank1
  3420     0962  1303               	bcf	3,6	;RP1=0, select bank1
  3421     0963  1C0C               	btfss	12,0	;volatile
  3422     0964  2966               	goto	u444_21
  3423     0965  2967               	goto	u444_20
  3424     0966                     u444_21:
  3425     0966  2972               	goto	i1l206
  3426     0967                     u444_20:
  3427     0967                     i1l3624:
  3428     0967  1283               	bcf	3,5	;RP0=0, select bank0
  3429     0968  1303               	bcf	3,6	;RP1=0, select bank0
  3430     0969  1C0C               	btfss	12,0	;volatile
  3431     096A  296C               	goto	u445_21
  3432     096B  296D               	goto	u445_20
  3433     096C                     u445_21:
  3434     096C  2972               	goto	i1l206
  3435     096D                     u445_20:
  3436     096D                     i1l3626:
  3437                           
  3438                           ;MCAL_Layer/Interrupt/mcal_interrupt_manager.c: 29:     {;MCAL_Layer/Interrupt/mcal_inte
      +                          rrupt_manager.c: 30:        TIMER1_ISR();
  3439     096D  120A  158A  2026  120A  158A  	fcall	_TIMER1_ISR
  3440     0972                     i1l206:	
  3441                           ;MCAL_Layer/Interrupt/mcal_interrupt_manager.c: 31:     }
  3442                           
  3443     0972  1283               	bcf	3,5	;RP0=0, select bank0
  3444     0973  1303               	bcf	3,6	;RP1=0, select bank0
  3445     0974  085F               	movf	??_InterruptManager+3,w
  3446     0975  00FF               	movwf	btemp+1
  3447     0976  085E               	movf	??_InterruptManager+2,w
  3448     0977  008A               	movwf	10
  3449     0978  085D               	movf	??_InterruptManager+1,w
  3450     0979  0084               	movwf	4
  3451     097A  0E5C               	swapf	??_InterruptManager,w
  3452     097B  0083               	movwf	3
  3453     097C  0EFE               	swapf	btemp,f
  3454     097D  0E7E               	swapf	btemp,w
  3455     097E  0009               	retfie
  3456     097F                     __end_of_InterruptManager:
  3457                           
  3458                           	psect	intentry
  3459     0004                     __pintentry:	
  3460                           ;incstack = 0
  3461                           ; Regs used in _InterruptManager: [wreg-fsr0h+status,2+status,0+btemp+1+pclath+cstack]
  3462                           
  3463     0004                     interrupt_function:
  3464     007E                     saved_w	set	btemp
  3465     0004  00FE               	movwf	btemp
  3466     0005  0E03               	swapf	3,w
  3467     0006  1283               	bcf	3,5	;RP0=0, select bank0
  3468     0007  1303               	bcf	3,6	;RP1=0, select bank0
  3469     0008  00DC               	movwf	??_InterruptManager
  3470     0009  0804               	movf	4,w
  3471     000A  00DD               	movwf	??_InterruptManager+1
  3472     000B  080A               	movf	10,w
  3473     000C  00DE               	movwf	??_InterruptManager+2
  3474     000D  087F               	movf	btemp+1,w
  3475     000E  00DF               	movwf	??_InterruptManager+3
  3476     000F  120A  158A  293F   	ljmp	_InterruptManager
  3477                           
  3478                           	psect	text16
  3479     0826                     __ptext16:	
  3480 ;; *************** function _TIMER1_ISR *****************
  3481 ;; Defined at:
  3482 ;;		line 127 in file "MCAL_Layer/Timer/hal_Timer.c"
  3483 ;; Parameters:    Size  Location     Type
  3484 ;;		None
  3485 ;; Auto vars:     Size  Location     Type
  3486 ;;		None
  3487 ;; Return value:  Size  Location     Type
  3488 ;;                  1    wreg      void 
  3489 ;; Registers used:
  3490 ;;		wreg, fsr0l, fsr0h, status,2, status,0, btemp+1, pclath, cstack
  3491 ;; Tracked objects:
  3492 ;;		On entry : 0/0
  3493 ;;		On exit  : 0/0
  3494 ;;		Unchanged: 0/0
  3495 ;; Data sizes:     COMMON   BANK0   BANK1   BANK3   BANK2
  3496 ;;      Params:         0       0       0       0       0
  3497 ;;      Locals:         0       0       0       0       0
  3498 ;;      Temps:          0       0       0       0       0
  3499 ;;      Totals:         0       0       0       0       0
  3500 ;;Total ram usage:        0 bytes
  3501 ;; Hardware stack levels used: 1
  3502 ;; Hardware stack levels required when called: 2
  3503 ;; This function calls:
  3504 ;;		NULL
  3505 ;;		_timer1_isr
  3506 ;; This function is called by:
  3507 ;;		_InterruptManager
  3508 ;; This function uses a non-reentrant model
  3509 ;;
  3510                           
  3511     0826                     _TIMER1_ISR:	
  3512                           ;psect for function _TIMER1_ISR
  3513                           
  3514     0826                     i1l3510:	
  3515                           ;incstack = 0
  3516                           ; Regs used in _TIMER1_ISR: [wreg-fsr0h+status,2+status,0+btemp+1+pclath+cstack]
  3517                           
  3518                           
  3519                           ;MCAL_Layer/Timer/hal_Timer.c: 129:     (PIR1bits.TMR1IF = 0);
  3520     0826  1283               	bcf	3,5	;RP0=0, select bank0
  3521     0827  1303               	bcf	3,6	;RP1=0, select bank0
  3522     0828  100C               	bcf	12,0	;volatile
  3523     0829                     i1l3512:
  3524                           
  3525                           ;MCAL_Layer/Timer/hal_Timer.c: 130:     TMR1H = (uint8)(preload_timer1 >> 8);
  3526     0829  1683               	bsf	3,5	;RP0=1, select bank1
  3527     082A  1303               	bcf	3,6	;RP1=0, select bank1
  3528     082B  0858               	movf	(_preload_timer1+1)^(0+128),w	;volatile
  3529     082C  1283               	bcf	3,5	;RP0=0, select bank0
  3530     082D  1303               	bcf	3,6	;RP1=0, select bank0
  3531     082E  008F               	movwf	15	;volatile
  3532     082F                     i1l3514:
  3533                           
  3534                           ;MCAL_Layer/Timer/hal_Timer.c: 131:     TMR1L = (uint8)(preload_timer1);
  3535     082F  1683               	bsf	3,5	;RP0=1, select bank1
  3536     0830  1303               	bcf	3,6	;RP1=0, select bank1
  3537     0831  0857               	movf	_preload_timer1^(0+128),w	;volatile
  3538     0832  1283               	bcf	3,5	;RP0=0, select bank0
  3539     0833  1303               	bcf	3,6	;RP1=0, select bank0
  3540     0834  008E               	movwf	14	;volatile
  3541     0835                     i1l3516:
  3542                           
  3543                           ;MCAL_Layer/Timer/hal_Timer.c: 132:     if(TIMER1_InterruptHandler)
  3544     0835  1683               	bsf	3,5	;RP0=1, select bank1
  3545     0836  1303               	bcf	3,6	;RP1=0, select bank1
  3546     0837  085B               	movf	_TIMER1_InterruptHandler^(0+128),w
  3547     0838  1903               	btfsc	3,2
  3548     0839  283B               	goto	u432_21
  3549     083A  283C               	goto	u432_20
  3550     083B                     u432_21:
  3551     083B  2842               	goto	i1l262
  3552     083C                     u432_20:
  3553     083C                     i1l3518:
  3554                           
  3555                           ;MCAL_Layer/Timer/hal_Timer.c: 133:     {;MCAL_Layer/Timer/hal_Timer.c: 134:         TIM
      +                          ER1_InterruptHandler();
  3556     083C  085B               	movf	_TIMER1_InterruptHandler^(0+128),w
  3557     083D  120A  118A  204E  120A  158A  	fcall	i1fptable
  3558     0842                     i1l262:
  3559     0842  0008               	return
  3560     0843                     __end_of_TIMER1_ISR:
  3561                           
  3562                           	psect	text17
  3563     08DF                     __ptext17:	
  3564 ;; *************** function _timer1_isr *****************
  3565 ;; Defined at:
  3566 ;;		line 112 in file "application.c"
  3567 ;; Parameters:    Size  Location     Type
  3568 ;;		None
  3569 ;; Auto vars:     Size  Location     Type
  3570 ;;		None
  3571 ;; Return value:  Size  Location     Type
  3572 ;;                  1    wreg      void 
  3573 ;; Registers used:
  3574 ;;		wreg, fsr0l, fsr0h, status,2, status,0, btemp+1, pclath, cstack
  3575 ;; Tracked objects:
  3576 ;;		On entry : 0/0
  3577 ;;		On exit  : 0/0
  3578 ;;		Unchanged: 0/0
  3579 ;; Data sizes:     COMMON   BANK0   BANK1   BANK3   BANK2
  3580 ;;      Params:         0       0       0       0       0
  3581 ;;      Locals:         0       0       0       0       0
  3582 ;;      Temps:          1       0       0       0       0
  3583 ;;      Totals:         1       0       0       0       0
  3584 ;;Total ram usage:        1 bytes
  3585 ;; Hardware stack levels used: 1
  3586 ;; Hardware stack levels required when called: 1
  3587 ;; This function calls:
  3588 ;;		i1_gpio_pin_write_logic
  3589 ;; This function is called by:
  3590 ;;		_TIMER1_ISR
  3591 ;; This function uses a non-reentrant model
  3592 ;;
  3593                           
  3594     08DF                     _timer1_isr:	
  3595                           ;psect for function _timer1_isr
  3596                           
  3597     08DF                     i1l3488:	
  3598                           ;incstack = 0
  3599                           ; Regs used in _timer1_isr: [wreg-fsr0h+status,2+status,0+btemp+1+pclath+cstack]
  3600                           
  3601                           
  3602                           ;application.c: 114:     gpio_pin_write_logic(&servo, GPIO_HIGH);
  3603     08DF  01F0               	clrf	i1gpio_pin_write_logic@logic
  3604     08E0  0AF0               	incf	i1gpio_pin_write_logic@logic,f
  3605     08E1  30BD               	movlw	(low (_servo| 0))& (0+255)
  3606     08E2  120A  158A  221F  120A  158A  	fcall	i1_gpio_pin_write_logic
  3607     08E7                     i1l3490:
  3608                           
  3609                           ;application.c: 115:     counter++;
  3610     08E7  3001               	movlw	1
  3611     08E8  00FF               	movwf	btemp+1
  3612     08E9  087F               	movf	btemp+1,w
  3613     08EA  1283               	bcf	3,5	;RP0=0, select bank0
  3614     08EB  1303               	bcf	3,6	;RP1=0, select bank0
  3615     08EC  07EC               	addwf	_counter,f
  3616     08ED                     i1l3492:
  3617                           
  3618                           ;application.c: 116:     if(10 == counter)
  3619     08ED  300A               	movlw	10
  3620     08EE  066C               	xorwf	_counter,w
  3621     08EF  1D03               	btfss	3,2
  3622     08F0  28F2               	goto	u430_21
  3623     08F1  28F3               	goto	u430_20
  3624     08F2                     u430_21:
  3625     08F2  290A               	goto	i1l358
  3626     08F3                     u430_20:
  3627     08F3                     i1l3494:
  3628                           
  3629                           ;application.c: 117:     {;application.c: 118:          gpio_pin_write_logic(&trigger, G
      +                          PIO_HIGH);
  3630     08F3  01F0               	clrf	i1gpio_pin_write_logic@logic
  3631     08F4  0AF0               	incf	i1gpio_pin_write_logic@logic,f
  3632     08F5  30BE               	movlw	(low (_trigger| 0))& (0+255)
  3633     08F6  120A  158A  221F  120A  158A  	fcall	i1_gpio_pin_write_logic
  3634     08FB                     i1l3496:
  3635                           
  3636                           ;application.c: 119:             _delay((unsigned long)((10)*(8000000/4000000.0)));
  3637     08FB  3006               	movlw	6
  3638     08FC  00F7               	movwf	??_timer1_isr
  3639     08FD                     u454_27:
  3640     08FD  0BF7               	decfsz	??_timer1_isr,f
  3641     08FE  28FD               	goto	u454_27
  3642     08FF  0000               	nop
  3643     0900                     i1l3498:
  3644                           
  3645                           ;application.c: 120:          gpio_pin_write_logic(&trigger, GPIO_LOW);
  3646     0900  01F0               	clrf	i1gpio_pin_write_logic@logic
  3647     0901  30BE               	movlw	(low (_trigger| 0))& (0+255)
  3648     0902  120A  158A  221F  120A  158A  	fcall	i1_gpio_pin_write_logic
  3649     0907                     i1l3500:
  3650                           
  3651                           ;application.c: 121:          counter = 0;
  3652     0907  1283               	bcf	3,5	;RP0=0, select bank0
  3653     0908  1303               	bcf	3,6	;RP1=0, select bank0
  3654     0909  01EC               	clrf	_counter
  3655     090A                     i1l358:
  3656     090A  0008               	return
  3657     090B                     __end_of_timer1_isr:
  3658                           
  3659                           	psect	text18
  3660     0802                     __ptext18:	
  3661 ;; *************** function _CCP2_ISR *****************
  3662 ;; Defined at:
  3663 ;;		line 112 in file "MCAL_Layer/CCP/hal_ccp.c"
  3664 ;; Parameters:    Size  Location     Type
  3665 ;;		None
  3666 ;; Auto vars:     Size  Location     Type
  3667 ;;		None
  3668 ;; Return value:  Size  Location     Type
  3669 ;;                  1    wreg      void 
  3670 ;; Registers used:
  3671 ;;		wreg, fsr0l, fsr0h, status,2, status,0, btemp+1, pclath, cstack
  3672 ;; Tracked objects:
  3673 ;;		On entry : 0/0
  3674 ;;		On exit  : 0/0
  3675 ;;		Unchanged: 0/0
  3676 ;; Data sizes:     COMMON   BANK0   BANK1   BANK3   BANK2
  3677 ;;      Params:         0       0       0       0       0
  3678 ;;      Locals:         0       0       0       0       0
  3679 ;;      Temps:          0       0       0       0       0
  3680 ;;      Totals:         0       0       0       0       0
  3681 ;;Total ram usage:        0 bytes
  3682 ;; Hardware stack levels used: 1
  3683 ;; Hardware stack levels required when called: 2
  3684 ;; This function calls:
  3685 ;;		NULL
  3686 ;;		_ccp2_isr
  3687 ;; This function is called by:
  3688 ;;		_InterruptManager
  3689 ;; This function uses a non-reentrant model
  3690 ;;
  3691                           
  3692     0802                     _CCP2_ISR:	
  3693                           ;psect for function _CCP2_ISR
  3694                           
  3695     0802                     i1l3504:	
  3696                           ;incstack = 0
  3697                           ; Regs used in _CCP2_ISR: [wreg-fsr0h+status,2+status,0+btemp+1+pclath+cstack]
  3698                           
  3699                           
  3700                           ;MCAL_Layer/CCP/hal_ccp.c: 114:     (PIR2bits.CCP2IF = 0);
  3701     0802  1283               	bcf	3,5	;RP0=0, select bank0
  3702     0803  1303               	bcf	3,6	;RP1=0, select bank0
  3703     0804  100D               	bcf	13,0	;volatile
  3704     0805                     i1l3506:
  3705                           
  3706                           ;MCAL_Layer/CCP/hal_ccp.c: 115:     if(ccp2_InterruptHandler)
  3707     0805  1683               	bsf	3,5	;RP0=1, select bank1
  3708     0806  1303               	bcf	3,6	;RP1=0, select bank1
  3709     0807  085C               	movf	_ccp2_InterruptHandler^(0+128),w
  3710     0808  1903               	btfsc	3,2
  3711     0809  280B               	goto	u431_21
  3712     080A  280C               	goto	u431_20
  3713     080B                     u431_21:
  3714     080B  2812               	goto	i1l68
  3715     080C                     u431_20:
  3716     080C                     i1l3508:
  3717                           
  3718                           ;MCAL_Layer/CCP/hal_ccp.c: 116:         ccp2_InterruptHandler();
  3719     080C  085C               	movf	_ccp2_InterruptHandler^(0+128),w
  3720     080D  120A  118A  204E  120A  158A  	fcall	i1fptable
  3721     0812                     i1l68:
  3722     0812  0008               	return
  3723     0813                     __end_of_CCP2_ISR:
  3724                           
  3725                           	psect	text19
  3726     17C5                     __ptext19:	
  3727 ;; *************** function _ccp2_isr *****************
  3728 ;; Defined at:
  3729 ;;		line 128 in file "application.c"
  3730 ;; Parameters:    Size  Location     Type
  3731 ;;		None
  3732 ;; Auto vars:     Size  Location     Type
  3733 ;;		None
  3734 ;; Return value:  Size  Location     Type
  3735 ;;                  1    wreg      void 
  3736 ;; Registers used:
  3737 ;;		wreg, fsr0l, fsr0h, status,2, status,0, btemp+1, pclath, cstack
  3738 ;; Tracked objects:
  3739 ;;		On entry : 0/0
  3740 ;;		On exit  : 0/0
  3741 ;;		Unchanged: 0/0
  3742 ;; Data sizes:     COMMON   BANK0   BANK1   BANK3   BANK2
  3743 ;;      Params:         0       0       0       0       0
  3744 ;;      Locals:         0       0       0       0       0
  3745 ;;      Temps:          0       0       0       0       0
  3746 ;;      Totals:         0       0       0       0       0
  3747 ;;Total ram usage:        0 bytes
  3748 ;; Hardware stack levels used: 1
  3749 ;; Hardware stack levels required when called: 1
  3750 ;; This function calls:
  3751 ;;		i1_gpio_pin_write_logic
  3752 ;; This function is called by:
  3753 ;;		_CCP2_ISR
  3754 ;; This function uses a non-reentrant model
  3755 ;;
  3756                           
  3757     17C5                     _ccp2_isr:	
  3758                           ;psect for function _ccp2_isr
  3759                           
  3760     17C5                     i1l3502:	
  3761                           ;incstack = 0
  3762                           ; Regs used in _ccp2_isr: [wreg-fsr0h+status,2+status,0+btemp+1+pclath+cstack]
  3763                           
  3764                           
  3765                           ;application.c: 130:     gpio_pin_write_logic(&servo, GPIO_LOW);
  3766     17C5  01F0               	clrf	i1gpio_pin_write_logic@logic
  3767     17C6  30BD               	movlw	(low (_servo| 0))& (0+255)
  3768     17C7  120A  158A  221F  160A  118A  	fcall	i1_gpio_pin_write_logic
  3769     17CC                     i1l361:
  3770     17CC  0008               	return
  3771     17CD                     __end_of_ccp2_isr:
  3772                           
  3773                           	psect	text20
  3774     0A1F                     __ptext20:	
  3775 ;; *************** function i1_gpio_pin_write_logic *****************
  3776 ;; Defined at:
  3777 ;;		line 49 in file "MCAL_Layer/GPIO/hal_gpio.c"
  3778 ;; Parameters:    Size  Location     Type
  3779 ;;  pin_config      1    wreg     PTR const struct .
  3780 ;;		 -> servo(1), trigger(1), 
  3781 ;;  logic           1    0[COMMON] enum E1524
  3782 ;; Auto vars:     Size  Location     Type
  3783 ;;  pin_config      1    6[COMMON] PTR const struct .
  3784 ;;		 -> servo(1), trigger(1), 
  3785 ;;  ret             1    0        unsigned char 
  3786 ;; Return value:  Size  Location     Type
  3787 ;;                  1    wreg      unsigned char 
  3788 ;; Registers used:
  3789 ;;		wreg, fsr0l, fsr0h, status,2, status,0, btemp+1
  3790 ;; Tracked objects:
  3791 ;;		On entry : 0/0
  3792 ;;		On exit  : 0/0
  3793 ;;		Unchanged: 0/0
  3794 ;; Data sizes:     COMMON   BANK0   BANK1   BANK3   BANK2
  3795 ;;      Params:         1       0       0       0       0
  3796 ;;      Locals:         1       0       0       0       0
  3797 ;;      Temps:          5       0       0       0       0
  3798 ;;      Totals:         7       0       0       0       0
  3799 ;;Total ram usage:        7 bytes
  3800 ;; Hardware stack levels used: 1
  3801 ;; This function calls:
  3802 ;;		Nothing
  3803 ;; This function is called by:
  3804 ;;		_timer1_isr
  3805 ;;		_ccp2_isr
  3806 ;; This function uses a non-reentrant model
  3807 ;;
  3808                           
  3809     0A1F                     i1_gpio_pin_write_logic:	
  3810                           ;psect for function i1_gpio_pin_write_logic
  3811                           
  3812                           
  3813                           ;incstack = 0
  3814                           ; Regs used in i1_gpio_pin_write_logic: [wreg-fsr0h+status,2+status,0+btemp+1]
  3815                           ;i1gpio_pin_write_logic@pin_config stored from wreg
  3816     0A1F  00F6               	movwf	i1gpio_pin_write_logic@pin_config
  3817     0A20                     i1l3400:
  3818     0A20                     i1l3402:
  3819                           
  3820                           ;MCAL_Layer/GPIO/hal_gpio.c: 52:     if ((((void*)0) == pin_config)|| (pin_config->pin >
      +                           8 -1))
  3821     0A20  0876               	movf	i1gpio_pin_write_logic@pin_config,w
  3822     0A21  1903               	btfsc	3,2
  3823     0A22  2A24               	goto	u418_21
  3824     0A23  2A25               	goto	u418_20
  3825     0A24                     u418_21:
  3826     0A24  2A34               	goto	i1l3406
  3827     0A25                     u418_20:
  3828     0A25                     i1l3404:
  3829     0A25  0876               	movf	i1gpio_pin_write_logic@pin_config,w
  3830     0A26  0084               	movwf	4
  3831     0A27  1383               	bcf	3,7	;select IRP bank0
  3832     0A28  0C00               	rrf	0,w
  3833     0A29  00F1               	movwf	??i1_gpio_pin_write_logic
  3834     0A2A  0CF1               	rrf	??i1_gpio_pin_write_logic,f
  3835     0A2B  0C71               	rrf	??i1_gpio_pin_write_logic,w
  3836     0A2C  3907               	andlw	7
  3837     0A2D  00F2               	movwf	??i1_gpio_pin_write_logic+1
  3838     0A2E  3008               	movlw	8
  3839     0A2F  0272               	subwf	??i1_gpio_pin_write_logic+1,w
  3840     0A30  1C03               	skipc
  3841     0A31  2A33               	goto	u419_21
  3842     0A32  2A34               	goto	u419_20
  3843     0A33                     u419_21:
  3844     0A33  2A84               	goto	i1l3418
  3845     0A34                     u419_20:
  3846     0A34                     i1l3406:
  3847                           
  3848                           ;MCAL_Layer/GPIO/hal_gpio.c: 55:     }
  3849     0A34  2A94               	goto	i1l123
  3850     0A35                     i1l3408:
  3851                           
  3852                           ;MCAL_Layer/GPIO/hal_gpio.c: 61:                (*port_registers[pin_config->port] &= ~(
      +                          (uint8)0x01 << pin_config->pin));
  3853     0A35  3001               	movlw	1
  3854     0A36  00F1               	movwf	??i1_gpio_pin_write_logic
  3855     0A37  0876               	movf	i1gpio_pin_write_logic@pin_config,w
  3856     0A38  0084               	movwf	4
  3857     0A39  0C00               	rrf	0,w
  3858     0A3A  00F2               	movwf	??i1_gpio_pin_write_logic+1
  3859     0A3B  0CF2               	rrf	??i1_gpio_pin_write_logic+1,f
  3860     0A3C  0C72               	rrf	??i1_gpio_pin_write_logic+1,w
  3861     0A3D  3907               	andlw	7
  3862     0A3E  3E01               	addlw	1
  3863     0A3F  2A42               	goto	u420_24
  3864     0A40                     u420_25:
  3865     0A40  1003               	clrc
  3866     0A41  0DF1               	rlf	??i1_gpio_pin_write_logic,f
  3867     0A42                     u420_24:
  3868     0A42  3EFF               	addlw	-1
  3869     0A43  1D03               	skipz
  3870     0A44  2A40               	goto	u420_25
  3871     0A45  0871               	movf	??i1_gpio_pin_write_logic,w
  3872     0A46  3AFF               	xorlw	255
  3873     0A47  00FF               	movwf	btemp+1
  3874     0A48  0876               	movf	i1gpio_pin_write_logic@pin_config,w
  3875     0A49  0084               	movwf	4
  3876     0A4A  0800               	movf	0,w
  3877     0A4B  3907               	andlw	7
  3878     0A4C  00F3               	movwf	??i1_gpio_pin_write_logic+2
  3879     0A4D  0773               	addwf	??i1_gpio_pin_write_logic+2,w
  3880     0A4E  3EA0               	addlw	(low (_port_registers| 0))& (0+255)
  3881     0A4F  0084               	movwf	4
  3882     0A50  0800               	movf	0,w
  3883     0A51  00F4               	movwf	??i1_gpio_pin_write_logic+3
  3884     0A52  0A84               	incf	4,f
  3885     0A53  0800               	movf	0,w
  3886     0A54  00F5               	movwf	??i1_gpio_pin_write_logic+4
  3887     0A55  0874               	movf	??i1_gpio_pin_write_logic+3,w
  3888     0A56  0084               	movwf	4
  3889     0A57  1783               	bsf	3,7
  3890     0A58  1C75               	btfss	??i1_gpio_pin_write_logic+4,0
  3891     0A59  1383               	bcf	3,7
  3892     0A5A  087F               	movf	btemp+1,w
  3893     0A5B  0580               	andwf	0,f
  3894     0A5C                     i1l3410:
  3895                           
  3896                           ;MCAL_Layer/GPIO/hal_gpio.c: 63:                break;
  3897     0A5C  2A94               	goto	i1l123
  3898     0A5D                     i1l3412:
  3899                           
  3900                           ;MCAL_Layer/GPIO/hal_gpio.c: 65:                 (*port_registers[pin_config->port] |= (
      +                          (uint8)0x01 << pin_config->pin));
  3901     0A5D  3001               	movlw	1
  3902     0A5E  00F1               	movwf	??i1_gpio_pin_write_logic
  3903     0A5F  0876               	movf	i1gpio_pin_write_logic@pin_config,w
  3904     0A60  0084               	movwf	4
  3905     0A61  0C00               	rrf	0,w
  3906     0A62  00F2               	movwf	??i1_gpio_pin_write_logic+1
  3907     0A63  0CF2               	rrf	??i1_gpio_pin_write_logic+1,f
  3908     0A64  0C72               	rrf	??i1_gpio_pin_write_logic+1,w
  3909     0A65  3907               	andlw	7
  3910     0A66  3E01               	addlw	1
  3911     0A67  2A6A               	goto	u421_24
  3912     0A68                     u421_25:
  3913     0A68  1003               	clrc
  3914     0A69  0DF1               	rlf	??i1_gpio_pin_write_logic,f
  3915     0A6A                     u421_24:
  3916     0A6A  3EFF               	addlw	-1
  3917     0A6B  1D03               	skipz
  3918     0A6C  2A68               	goto	u421_25
  3919     0A6D  0871               	movf	??i1_gpio_pin_write_logic,w
  3920     0A6E  00FF               	movwf	btemp+1
  3921     0A6F  0876               	movf	i1gpio_pin_write_logic@pin_config,w
  3922     0A70  0084               	movwf	4
  3923     0A71  0800               	movf	0,w
  3924     0A72  3907               	andlw	7
  3925     0A73  00F3               	movwf	??i1_gpio_pin_write_logic+2
  3926     0A74  0773               	addwf	??i1_gpio_pin_write_logic+2,w
  3927     0A75  3EA0               	addlw	(low (_port_registers| 0))& (0+255)
  3928     0A76  0084               	movwf	4
  3929     0A77  0800               	movf	0,w
  3930     0A78  00F4               	movwf	??i1_gpio_pin_write_logic+3
  3931     0A79  0A84               	incf	4,f
  3932     0A7A  0800               	movf	0,w
  3933     0A7B  00F5               	movwf	??i1_gpio_pin_write_logic+4
  3934     0A7C  0874               	movf	??i1_gpio_pin_write_logic+3,w
  3935     0A7D  0084               	movwf	4
  3936     0A7E  1783               	bsf	3,7
  3937     0A7F  1C75               	btfss	??i1_gpio_pin_write_logic+4,0
  3938     0A80  1383               	bcf	3,7
  3939     0A81  087F               	movf	btemp+1,w
  3940     0A82  0480               	iorwf	0,f
  3941     0A83  2A5C               	goto	i1l3410
  3942     0A84                     i1l3418:
  3943     0A84  0870               	movf	i1gpio_pin_write_logic@logic,w
  3944     0A85  00F1               	movwf	??i1_gpio_pin_write_logic
  3945     0A86  01F2               	clrf	??i1_gpio_pin_write_logic+1
  3946                           
  3947                           ; Switch on 2 bytes has been partitioned into a top level switch of size 1, and 1 sub-sw
      +                          itches
  3948                           ; Switch size 1, requested type "simple"
  3949                           ; Number of cases is 1, Range of values is 0 to 0
  3950                           ; switch strategies available:
  3951                           ; Name         Instructions Cycles
  3952                           ; simple_byte            4     3 (average)
  3953                           ; direct_byte           11     8 (fixed)
  3954                           ; jumptable            260     6 (fixed)
  3955                           ;	Chosen strategy is simple_byte
  3956     0A87  0872               	movf	??i1_gpio_pin_write_logic+1,w
  3957     0A88  3A00               	xorlw	0	; case 0
  3958     0A89  1903               	skipnz
  3959     0A8A  2A8C               	goto	i1l3808
  3960     0A8B  2A34               	goto	i1l3406
  3961     0A8C                     i1l3808:
  3962                           
  3963                           ; Switch size 1, requested type "simple"
  3964                           ; Number of cases is 2, Range of values is 0 to 1
  3965                           ; switch strategies available:
  3966                           ; Name         Instructions Cycles
  3967                           ; simple_byte            7     4 (average)
  3968                           ; direct_byte           14     8 (fixed)
  3969                           ; jumptable            260     6 (fixed)
  3970                           ;	Chosen strategy is simple_byte
  3971     0A8C  0871               	movf	??i1_gpio_pin_write_logic,w
  3972     0A8D  3A00               	xorlw	0	; case 0
  3973     0A8E  1903               	skipnz
  3974     0A8F  2A35               	goto	i1l3408
  3975     0A90  3A01               	xorlw	1	; case 1
  3976     0A91  1903               	skipnz
  3977     0A92  2A5D               	goto	i1l3412
  3978     0A93  2A34               	goto	i1l3406
  3979     0A94                     i1l123:
  3980     0A94  0008               	return
  3981     0A95                     __end_ofi1_gpio_pin_write_logic:
  3982                           
  3983                           	psect	text21
  3984     17F1                     __ptext21:	
  3985 ;; *************** function _CCP1_ISR *****************
  3986 ;; Defined at:
  3987 ;;		line 53 in file "MCAL_Layer/CCP/hal_ccp.c"
  3988 ;; Parameters:    Size  Location     Type
  3989 ;;		None
  3990 ;; Auto vars:     Size  Location     Type
  3991 ;;		None
  3992 ;; Return value:  Size  Location     Type
  3993 ;;                  1    wreg      void 
  3994 ;; Registers used:
  3995 ;;		wreg, status,2, status,0, btemp+1, pclath, cstack
  3996 ;; Tracked objects:
  3997 ;;		On entry : 0/0
  3998 ;;		On exit  : 0/0
  3999 ;;		Unchanged: 0/0
  4000 ;; Data sizes:     COMMON   BANK0   BANK1   BANK3   BANK2
  4001 ;;      Params:         0       0       0       0       0
  4002 ;;      Locals:         0       0       0       0       0
  4003 ;;      Temps:          0       0       0       0       0
  4004 ;;      Totals:         0       0       0       0       0
  4005 ;;Total ram usage:        0 bytes
  4006 ;; Hardware stack levels used: 1
  4007 ;; Hardware stack levels required when called: 3
  4008 ;; This function calls:
  4009 ;;		NULL
  4010 ;;		_ccp1_isr
  4011 ;; This function is called by:
  4012 ;;		_InterruptManager
  4013 ;; This function uses a non-reentrant model
  4014 ;;
  4015                           
  4016     17F1                     _CCP1_ISR:	
  4017                           ;psect for function _CCP1_ISR
  4018                           
  4019     17F1                     i1l2890:	
  4020                           ;incstack = 0
  4021                           ; Regs used in _CCP1_ISR: [wreg+status,2+status,0+btemp+1+pclath+cstack]
  4022                           
  4023                           
  4024                           ;MCAL_Layer/CCP/hal_ccp.c: 55:     (PIR1bits.CCP1IF = 0);
  4025     17F1  1283               	bcf	3,5	;RP0=0, select bank0
  4026     17F2  1303               	bcf	3,6	;RP1=0, select bank0
  4027     17F3  110C               	bcf	12,2	;volatile
  4028     17F4                     i1l2892:
  4029                           
  4030                           ;MCAL_Layer/CCP/hal_ccp.c: 56:     if(ccp1_InterruptHandler)
  4031     17F4  0866               	movf	_ccp1_InterruptHandler,w
  4032     17F5  1903               	btfsc	3,2
  4033     17F6  2FF8               	goto	u360_21
  4034     17F7  2FF9               	goto	u360_20
  4035     17F8                     u360_21:
  4036     17F8  2FFF               	goto	i1l45
  4037     17F9                     u360_20:
  4038     17F9                     i1l2894:
  4039                           
  4040                           ;MCAL_Layer/CCP/hal_ccp.c: 57:         ccp1_InterruptHandler();
  4041     17F9  0866               	movf	_ccp1_InterruptHandler,w
  4042     17FA  120A  118A  204E  160A  118A  	fcall	i1fptable
  4043     17FF                     i1l45:
  4044     17FF  0008               	return
  4045     1800                     __end_of_CCP1_ISR:
  4046                           
  4047                           	psect	text22
  4048     05FA                     __ptext22:	
  4049 ;; *************** function _ccp1_isr *****************
  4050 ;; Defined at:
  4051 ;;		line 139 in file "application.c"
  4052 ;; Parameters:    Size  Location     Type
  4053 ;;		None
  4054 ;; Auto vars:     Size  Location     Type
  4055 ;;		None
  4056 ;; Return value:  Size  Location     Type
  4057 ;;                  1    wreg      void 
  4058 ;; Registers used:
  4059 ;;		wreg, status,2, status,0, btemp+1, pclath, cstack
  4060 ;; Tracked objects:
  4061 ;;		On entry : 0/0
  4062 ;;		On exit  : 0/0
  4063 ;;		Unchanged: 0/0
  4064 ;; Data sizes:     COMMON   BANK0   BANK1   BANK3   BANK2
  4065 ;;      Params:         0       0       0       0       0
  4066 ;;      Locals:         0       0       0       0       0
  4067 ;;      Temps:          0       8       0       0       0
  4068 ;;      Totals:         0       8       0       0       0
  4069 ;;Total ram usage:        8 bytes
  4070 ;; Hardware stack levels used: 1
  4071 ;; Hardware stack levels required when called: 2
  4072 ;; This function calls:
  4073 ;;		___fladd
  4074 ;;		___fldiv
  4075 ;;		___flmul
  4076 ;;		___xxtofl
  4077 ;;		_ccp1_change_mode
  4078 ;; This function is called by:
  4079 ;;		_CCP1_ISR
  4080 ;; This function uses a non-reentrant model
  4081 ;;
  4082                           
  4083     05FA                     _ccp1_isr:	
  4084                           ;psect for function _ccp1_isr
  4085                           
  4086     05FA                     i1l2868:	
  4087                           ;incstack = 0
  4088                           ; Regs used in _ccp1_isr: [wreg+status,2+status,0+btemp+1+pclath+cstack]
  4089                           
  4090                           
  4091                           ;application.c: 141:     if(1 == rising_edge)
  4092     05FA  1283               	bcf	3,5	;RP0=0, select bank0
  4093     05FB  1303               	bcf	3,6	;RP1=0, select bank0
  4094     05FC  036B               	decf	_rising_edge,w
  4095     05FD  1D03               	btfss	3,2
  4096     05FE  2E00               	goto	u357_21
  4097     05FF  2E01               	goto	u357_20
  4098     0600                     u357_21:
  4099     0600  2E0F               	goto	i1l2876
  4100     0601                     u357_20:
  4101     0601                     i1l2870:
  4102                           
  4103                           ;application.c: 142:     {;application.c: 143:         start = CCPR1;
  4104     0601  0816               	movf	22,w	;volatile
  4105     0602  00E5               	movwf	_start+1
  4106     0603  0815               	movf	21,w	;volatile
  4107     0604  00E4               	movwf	_start
  4108     0605                     i1l2872:
  4109                           
  4110                           ;application.c: 144:         ccp1_change_mode(4);
  4111     0605  3004               	movlw	4
  4112     0606  160A  118A  27CD  120A  118A  	fcall	_ccp1_change_mode
  4113     060B                     i1l2874:
  4114                           
  4115                           ;application.c: 145:         rising_edge = 0;
  4116     060B  1283               	bcf	3,5	;RP0=0, select bank0
  4117     060C  1303               	bcf	3,6	;RP1=0, select bank0
  4118     060D  01EB               	clrf	_rising_edge
  4119                           
  4120                           ;application.c: 146:     }
  4121     060E  2FF2               	goto	i1l368
  4122     060F                     i1l2876:
  4123                           
  4124                           ;application.c: 148:     {;application.c: 149:         end = CCPR1;
  4125     060F  0816               	movf	22,w	;volatile
  4126     0610  00E3               	movwf	_end+1
  4127     0611  0815               	movf	21,w	;volatile
  4128     0612  00E2               	movwf	_end
  4129     0613                     i1l2878:
  4130                           
  4131                           ;application.c: 150:         ccp1_change_mode(5);
  4132     0613  3005               	movlw	5
  4133     0614  160A  118A  27CD  120A  118A  	fcall	_ccp1_change_mode
  4134     0619                     i1l2880:
  4135                           
  4136                           ;application.c: 151:         rising_edge = 1;
  4137     0619  1283               	bcf	3,5	;RP0=0, select bank0
  4138     061A  1303               	bcf	3,6	;RP1=0, select bank0
  4139     061B  01EB               	clrf	_rising_edge
  4140     061C  0AEB               	incf	_rising_edge,f
  4141     061D                     i1l2882:
  4142                           
  4143                           ;application.c: 152:         object_exist = 1;
  4144     061D  1683               	bsf	3,5	;RP0=1, select bank1
  4145     061E  1303               	bcf	3,6	;RP1=0, select bank1
  4146     061F  01D9               	clrf	_object_exist^(0+128)
  4147     0620  0AD9               	incf	_object_exist^(0+128),f
  4148     0621                     i1l2884:
  4149                           
  4150                           ;application.c: 154:         if(0 == overflow)
  4151     0621  1283               	bcf	3,5	;RP0=0, select bank0
  4152     0622  1303               	bcf	3,6	;RP1=0, select bank0
  4153     0623  0860               	movf	_overflow,w
  4154     0624  0461               	iorwf	_overflow+1,w
  4155     0625  1D03               	btfss	3,2
  4156     0626  2E28               	goto	u358_21
  4157     0627  2E29               	goto	u358_20
  4158     0628                     u358_21:
  4159     0628  2E69               	goto	i1l2888
  4160     0629                     u358_20:
  4161     0629                     i1l2886:
  4162                           
  4163                           ;application.c: 155:             {;application.c: 156:                time = (end - star
      +                          t) * clk_time;
  4164     0629  086A               	movf	_clk_time+3,w
  4165     062A  00A3               	movwf	___flmul@b+3
  4166     062B  0869               	movf	_clk_time+2,w
  4167     062C  00A2               	movwf	___flmul@b+2
  4168     062D  0868               	movf	_clk_time+1,w
  4169     062E  00A1               	movwf	___flmul@b+1
  4170     062F  0867               	movf	_clk_time,w
  4171     0630  00A0               	movwf	___flmul@b
  4172     0631  0864               	movf	_start,w
  4173     0632  0262               	subwf	_end,w
  4174     0633  00F0               	movwf	___xxtofl@val
  4175     0634  0865               	movf	_start+1,w
  4176     0635  1C03               	skipc
  4177     0636  0A65               	incf	_start+1,w
  4178     0637  0263               	subwf	_end+1,w
  4179     0638  00F1               	movwf	___xxtofl@val+1
  4180     0639  01F2               	clrf	___xxtofl@val+2
  4181     063A  01F3               	clrf	___xxtofl@val+3
  4182     063B  3000               	movlw	0
  4183     063C  120A  158A  2579  120A  118A  	fcall	___xxtofl
  4184     0641  0873               	movf	?___xxtofl+3,w
  4185     0642  1283               	bcf	3,5	;RP0=0, select bank0
  4186     0643  1303               	bcf	3,6	;RP1=0, select bank0
  4187     0644  00A7               	movwf	___flmul@a+3
  4188     0645  0872               	movf	?___xxtofl+2,w
  4189     0646  00A6               	movwf	___flmul@a+2
  4190     0647  0871               	movf	?___xxtofl+1,w
  4191     0648  00A5               	movwf	___flmul@a+1
  4192     0649  0870               	movf	?___xxtofl,w
  4193     064A  00A4               	movwf	___flmul@a
  4194     064B  120A  118A  205D  120A  118A  	fcall	___flmul
  4195     0650  1283               	bcf	3,5	;RP0=0, select bank0
  4196     0651  1303               	bcf	3,6	;RP1=0, select bank0
  4197     0652  0823               	movf	?___flmul+3,w
  4198     0653  1683               	bsf	3,5	;RP0=1, select bank1
  4199     0654  1303               	bcf	3,6	;RP1=0, select bank1
  4200     0655  00D6               	movwf	(_time+3)^(0+128)
  4201     0656  1283               	bcf	3,5	;RP0=0, select bank0
  4202     0657  1303               	bcf	3,6	;RP1=0, select bank0
  4203     0658  0822               	movf	?___flmul+2,w
  4204     0659  1683               	bsf	3,5	;RP0=1, select bank1
  4205     065A  1303               	bcf	3,6	;RP1=0, select bank1
  4206     065B  00D5               	movwf	(_time+2)^(0+128)
  4207     065C  1283               	bcf	3,5	;RP0=0, select bank0
  4208     065D  1303               	bcf	3,6	;RP1=0, select bank0
  4209     065E  0821               	movf	?___flmul+1,w
  4210     065F  1683               	bsf	3,5	;RP0=1, select bank1
  4211     0660  1303               	bcf	3,6	;RP1=0, select bank1
  4212     0661  00D4               	movwf	(_time+1)^(0+128)
  4213     0662  1283               	bcf	3,5	;RP0=0, select bank0
  4214     0663  1303               	bcf	3,6	;RP1=0, select bank0
  4215     0664  0820               	movf	?___flmul,w
  4216     0665  1683               	bsf	3,5	;RP0=1, select bank1
  4217     0666  1303               	bcf	3,6	;RP1=0, select bank1
  4218     0667  00D3               	movwf	_time^(0+128)
  4219                           
  4220                           ;application.c: 157:             }
  4221     0668  2F9C               	goto	i1l367
  4222     0669                     i1l2888:
  4223                           
  4224                           ;application.c: 159:             {;application.c: 160:                 time = (overflow 
      +                          - 1) * clk_time;
  4225     0669  086A               	movf	_clk_time+3,w
  4226     066A  00A3               	movwf	___flmul@b+3
  4227     066B  0869               	movf	_clk_time+2,w
  4228     066C  00A2               	movwf	___flmul@b+2
  4229     066D  0868               	movf	_clk_time+1,w
  4230     066E  00A1               	movwf	___flmul@b+1
  4231     066F  0867               	movf	_clk_time,w
  4232     0670  00A0               	movwf	___flmul@b
  4233     0671  0860               	movf	_overflow,w
  4234     0672  3EFF               	addlw	255
  4235     0673  00F0               	movwf	___xxtofl@val
  4236     0674  0861               	movf	_overflow+1,w
  4237     0675  1803               	skipnc
  4238     0676  3E01               	addlw	1
  4239     0677  3EFF               	addlw	255
  4240     0678  00F1               	movwf	___xxtofl@val+1
  4241     0679  01F2               	clrf	___xxtofl@val+2
  4242     067A  01F3               	clrf	___xxtofl@val+3
  4243     067B  3000               	movlw	0
  4244     067C  120A  158A  2579  120A  118A  	fcall	___xxtofl
  4245     0681  0873               	movf	?___xxtofl+3,w
  4246     0682  1283               	bcf	3,5	;RP0=0, select bank0
  4247     0683  1303               	bcf	3,6	;RP1=0, select bank0
  4248     0684  00A7               	movwf	___flmul@a+3
  4249     0685  0872               	movf	?___xxtofl+2,w
  4250     0686  00A6               	movwf	___flmul@a+2
  4251     0687  0871               	movf	?___xxtofl+1,w
  4252     0688  00A5               	movwf	___flmul@a+1
  4253     0689  0870               	movf	?___xxtofl,w
  4254     068A  00A4               	movwf	___flmul@a
  4255     068B  120A  118A  205D  120A  118A  	fcall	___flmul
  4256     0690  1283               	bcf	3,5	;RP0=0, select bank0
  4257     0691  1303               	bcf	3,6	;RP1=0, select bank0
  4258     0692  0823               	movf	?___flmul+3,w
  4259     0693  1683               	bsf	3,5	;RP0=1, select bank1
  4260     0694  1303               	bcf	3,6	;RP1=0, select bank1
  4261     0695  00D6               	movwf	(_time+3)^(0+128)
  4262     0696  1283               	bcf	3,5	;RP0=0, select bank0
  4263     0697  1303               	bcf	3,6	;RP1=0, select bank0
  4264     0698  0822               	movf	?___flmul+2,w
  4265     0699  1683               	bsf	3,5	;RP0=1, select bank1
  4266     069A  1303               	bcf	3,6	;RP1=0, select bank1
  4267     069B  00D5               	movwf	(_time+2)^(0+128)
  4268     069C  1283               	bcf	3,5	;RP0=0, select bank0
  4269     069D  1303               	bcf	3,6	;RP1=0, select bank0
  4270     069E  0821               	movf	?___flmul+1,w
  4271     069F  1683               	bsf	3,5	;RP0=1, select bank1
  4272     06A0  1303               	bcf	3,6	;RP1=0, select bank1
  4273     06A1  00D4               	movwf	(_time+1)^(0+128)
  4274     06A2  1283               	bcf	3,5	;RP0=0, select bank0
  4275     06A3  1303               	bcf	3,6	;RP1=0, select bank0
  4276     06A4  0820               	movf	?___flmul,w
  4277     06A5  1683               	bsf	3,5	;RP0=1, select bank1
  4278     06A6  1303               	bcf	3,6	;RP1=0, select bank1
  4279     06A7  00D3               	movwf	_time^(0+128)
  4280                           
  4281                           ;application.c: 161:                 time += (end - tmr1.initial_value) * clk_time;
  4282     06A8  0836               	movf	(_tmr1^(0+128)+1),w
  4283     06A9  1283               	bcf	3,5	;RP0=0, select bank0
  4284     06AA  1303               	bcf	3,6	;RP1=0, select bank0
  4285     06AB  0262               	subwf	_end,w
  4286     06AC  00F0               	movwf	___xxtofl@val
  4287     06AD  1683               	bsf	3,5	;RP0=1, select bank1
  4288     06AE  1303               	bcf	3,6	;RP1=0, select bank1
  4289     06AF  0837               	movf	((_tmr1+1)^(0+128)+1),w
  4290     06B0  1C03               	skipc
  4291     06B1  0A37               	incf	((_tmr1+1)^(0+128)+1),w
  4292     06B2  1283               	bcf	3,5	;RP0=0, select bank0
  4293     06B3  1303               	bcf	3,6	;RP1=0, select bank0
  4294     06B4  0263               	subwf	_end+1,w
  4295     06B5  00F1               	movwf	___xxtofl@val+1
  4296     06B6  01F2               	clrf	___xxtofl@val+2
  4297     06B7  01F3               	clrf	___xxtofl@val+3
  4298     06B8  3000               	movlw	0
  4299     06B9  120A  158A  2579  120A  118A  	fcall	___xxtofl
  4300     06BE  0873               	movf	?___xxtofl+3,w
  4301     06BF  1283               	bcf	3,5	;RP0=0, select bank0
  4302     06C0  1303               	bcf	3,6	;RP1=0, select bank0
  4303     06C1  00A7               	movwf	___flmul@a+3
  4304     06C2  0872               	movf	?___xxtofl+2,w
  4305     06C3  00A6               	movwf	___flmul@a+2
  4306     06C4  0871               	movf	?___xxtofl+1,w
  4307     06C5  00A5               	movwf	___flmul@a+1
  4308     06C6  0870               	movf	?___xxtofl,w
  4309     06C7  00A4               	movwf	___flmul@a
  4310     06C8  086A               	movf	_clk_time+3,w
  4311     06C9  00A3               	movwf	___flmul@b+3
  4312     06CA  0869               	movf	_clk_time+2,w
  4313     06CB  00A2               	movwf	___flmul@b+2
  4314     06CC  0868               	movf	_clk_time+1,w
  4315     06CD  00A1               	movwf	___flmul@b+1
  4316     06CE  0867               	movf	_clk_time,w
  4317     06CF  00A0               	movwf	___flmul@b
  4318     06D0  120A  118A  205D  120A  118A  	fcall	___flmul
  4319     06D5  1283               	bcf	3,5	;RP0=0, select bank0
  4320     06D6  1303               	bcf	3,6	;RP1=0, select bank0
  4321     06D7  0823               	movf	?___flmul+3,w
  4322     06D8  00BD               	movwf	___fladd@b+3
  4323     06D9  0822               	movf	?___flmul+2,w
  4324     06DA  00BC               	movwf	___fladd@b+2
  4325     06DB  0821               	movf	?___flmul+1,w
  4326     06DC  00BB               	movwf	___fladd@b+1
  4327     06DD  0820               	movf	?___flmul,w
  4328     06DE  00BA               	movwf	___fladd@b
  4329     06DF  1683               	bsf	3,5	;RP0=1, select bank1
  4330     06E0  1303               	bcf	3,6	;RP1=0, select bank1
  4331     06E1  0856               	movf	(_time+3)^(0+128),w
  4332     06E2  1283               	bcf	3,5	;RP0=0, select bank0
  4333     06E3  1303               	bcf	3,6	;RP1=0, select bank0
  4334     06E4  00C1               	movwf	___fladd@a+3
  4335     06E5  1683               	bsf	3,5	;RP0=1, select bank1
  4336     06E6  1303               	bcf	3,6	;RP1=0, select bank1
  4337     06E7  0855               	movf	(_time+2)^(0+128),w
  4338     06E8  1283               	bcf	3,5	;RP0=0, select bank0
  4339     06E9  1303               	bcf	3,6	;RP1=0, select bank0
  4340     06EA  00C0               	movwf	___fladd@a+2
  4341     06EB  1683               	bsf	3,5	;RP0=1, select bank1
  4342     06EC  1303               	bcf	3,6	;RP1=0, select bank1
  4343     06ED  0854               	movf	(_time+1)^(0+128),w
  4344     06EE  1283               	bcf	3,5	;RP0=0, select bank0
  4345     06EF  1303               	bcf	3,6	;RP1=0, select bank0
  4346     06F0  00BF               	movwf	___fladd@a+1
  4347     06F1  1683               	bsf	3,5	;RP0=1, select bank1
  4348     06F2  1303               	bcf	3,6	;RP1=0, select bank1
  4349     06F3  0853               	movf	_time^(0+128),w
  4350     06F4  1283               	bcf	3,5	;RP0=0, select bank0
  4351     06F5  1303               	bcf	3,6	;RP1=0, select bank0
  4352     06F6  00BE               	movwf	___fladd@a
  4353     06F7  120A  118A  23A2  120A  118A  	fcall	___fladd
  4354     06FC  1283               	bcf	3,5	;RP0=0, select bank0
  4355     06FD  1303               	bcf	3,6	;RP1=0, select bank0
  4356     06FE  083D               	movf	?___fladd+3,w
  4357     06FF  1683               	bsf	3,5	;RP0=1, select bank1
  4358     0700  1303               	bcf	3,6	;RP1=0, select bank1
  4359     0701  00D6               	movwf	(_time+3)^(0+128)
  4360     0702  1283               	bcf	3,5	;RP0=0, select bank0
  4361     0703  1303               	bcf	3,6	;RP1=0, select bank0
  4362     0704  083C               	movf	?___fladd+2,w
  4363     0705  1683               	bsf	3,5	;RP0=1, select bank1
  4364     0706  1303               	bcf	3,6	;RP1=0, select bank1
  4365     0707  00D5               	movwf	(_time+2)^(0+128)
  4366     0708  1283               	bcf	3,5	;RP0=0, select bank0
  4367     0709  1303               	bcf	3,6	;RP1=0, select bank0
  4368     070A  083B               	movf	?___fladd+1,w
  4369     070B  1683               	bsf	3,5	;RP0=1, select bank1
  4370     070C  1303               	bcf	3,6	;RP1=0, select bank1
  4371     070D  00D4               	movwf	(_time+1)^(0+128)
  4372     070E  1283               	bcf	3,5	;RP0=0, select bank0
  4373     070F  1303               	bcf	3,6	;RP1=0, select bank0
  4374     0710  083A               	movf	?___fladd,w
  4375     0711  1683               	bsf	3,5	;RP0=1, select bank1
  4376     0712  1303               	bcf	3,6	;RP1=0, select bank1
  4377     0713  00D3               	movwf	_time^(0+128)
  4378                           
  4379                           ;application.c: 162:                 time += (65536 - start) * clk_time;
  4380     0714  1283               	bcf	3,5	;RP0=0, select bank0
  4381     0715  1303               	bcf	3,6	;RP1=0, select bank0
  4382     0716  0864               	movf	_start,w
  4383     0717  00D4               	movwf	??_ccp1_isr
  4384     0718  0865               	movf	_start+1,w
  4385     0719  00D5               	movwf	??_ccp1_isr+1
  4386     071A  01D6               	clrf	??_ccp1_isr+2
  4387     071B  01D7               	clrf	??_ccp1_isr+3
  4388     071C  3000               	movlw	0
  4389     071D  00D8               	movwf	??_ccp1_isr+4
  4390     071E  3000               	movlw	0
  4391     071F  00D9               	movwf	??_ccp1_isr+5
  4392     0720  3001               	movlw	1
  4393     0721  00DA               	movwf	??_ccp1_isr+6
  4394     0722  3000               	movlw	0
  4395     0723  00DB               	movwf	??_ccp1_isr+7
  4396     0724  0854               	movf	??_ccp1_isr,w
  4397     0725  02D8               	subwf	??_ccp1_isr+4,f
  4398     0726  0855               	movf	??_ccp1_isr+1,w
  4399     0727  1C03               	skipc
  4400     0728  0F55               	incfsz	??_ccp1_isr+1,w
  4401     0729  2F2B               	goto	u359_21
  4402     072A  2F2C               	goto	u359_22
  4403     072B                     u359_21:
  4404     072B  02D9               	subwf	??_ccp1_isr+5,f
  4405     072C                     u359_22:
  4406     072C  0856               	movf	??_ccp1_isr+2,w
  4407     072D  1C03               	skipc
  4408     072E  0F56               	incfsz	??_ccp1_isr+2,w
  4409     072F  2F31               	goto	u359_23
  4410     0730  2F32               	goto	u359_24
  4411     0731                     u359_23:
  4412     0731  02DA               	subwf	??_ccp1_isr+6,f
  4413     0732                     u359_24:
  4414     0732  0857               	movf	??_ccp1_isr+3,w
  4415     0733  1C03               	skipc
  4416     0734  0F57               	incfsz	??_ccp1_isr+3,w
  4417     0735  2F37               	goto	u359_25
  4418     0736  2F38               	goto	u359_26
  4419     0737                     u359_25:
  4420     0737  02DB               	subwf	??_ccp1_isr+7,f
  4421     0738                     u359_26:
  4422     0738  085B               	movf	??_ccp1_isr+7,w
  4423     0739  00F3               	movwf	___xxtofl@val+3
  4424     073A  085A               	movf	??_ccp1_isr+6,w
  4425     073B  00F2               	movwf	___xxtofl@val+2
  4426     073C  0859               	movf	??_ccp1_isr+5,w
  4427     073D  00F1               	movwf	___xxtofl@val+1
  4428     073E  0858               	movf	??_ccp1_isr+4,w
  4429     073F  00F0               	movwf	___xxtofl@val
  4430     0740  3001               	movlw	1
  4431     0741  120A  158A  2579  120A  118A  	fcall	___xxtofl
  4432     0746  0873               	movf	?___xxtofl+3,w
  4433     0747  1283               	bcf	3,5	;RP0=0, select bank0
  4434     0748  1303               	bcf	3,6	;RP1=0, select bank0
  4435     0749  00A7               	movwf	___flmul@a+3
  4436     074A  0872               	movf	?___xxtofl+2,w
  4437     074B  00A6               	movwf	___flmul@a+2
  4438     074C  0871               	movf	?___xxtofl+1,w
  4439     074D  00A5               	movwf	___flmul@a+1
  4440     074E  0870               	movf	?___xxtofl,w
  4441     074F  00A4               	movwf	___flmul@a
  4442     0750  086A               	movf	_clk_time+3,w
  4443     0751  00A3               	movwf	___flmul@b+3
  4444     0752  0869               	movf	_clk_time+2,w
  4445     0753  00A2               	movwf	___flmul@b+2
  4446     0754  0868               	movf	_clk_time+1,w
  4447     0755  00A1               	movwf	___flmul@b+1
  4448     0756  0867               	movf	_clk_time,w
  4449     0757  00A0               	movwf	___flmul@b
  4450     0758  120A  118A  205D  120A  118A  	fcall	___flmul
  4451     075D  1283               	bcf	3,5	;RP0=0, select bank0
  4452     075E  1303               	bcf	3,6	;RP1=0, select bank0
  4453     075F  0823               	movf	?___flmul+3,w
  4454     0760  00BD               	movwf	___fladd@b+3
  4455     0761  0822               	movf	?___flmul+2,w
  4456     0762  00BC               	movwf	___fladd@b+2
  4457     0763  0821               	movf	?___flmul+1,w
  4458     0764  00BB               	movwf	___fladd@b+1
  4459     0765  0820               	movf	?___flmul,w
  4460     0766  00BA               	movwf	___fladd@b
  4461     0767  1683               	bsf	3,5	;RP0=1, select bank1
  4462     0768  1303               	bcf	3,6	;RP1=0, select bank1
  4463     0769  0856               	movf	(_time+3)^(0+128),w
  4464     076A  1283               	bcf	3,5	;RP0=0, select bank0
  4465     076B  1303               	bcf	3,6	;RP1=0, select bank0
  4466     076C  00C1               	movwf	___fladd@a+3
  4467     076D  1683               	bsf	3,5	;RP0=1, select bank1
  4468     076E  1303               	bcf	3,6	;RP1=0, select bank1
  4469     076F  0855               	movf	(_time+2)^(0+128),w
  4470     0770  1283               	bcf	3,5	;RP0=0, select bank0
  4471     0771  1303               	bcf	3,6	;RP1=0, select bank0
  4472     0772  00C0               	movwf	___fladd@a+2
  4473     0773  1683               	bsf	3,5	;RP0=1, select bank1
  4474     0774  1303               	bcf	3,6	;RP1=0, select bank1
  4475     0775  0854               	movf	(_time+1)^(0+128),w
  4476     0776  1283               	bcf	3,5	;RP0=0, select bank0
  4477     0777  1303               	bcf	3,6	;RP1=0, select bank0
  4478     0778  00BF               	movwf	___fladd@a+1
  4479     0779  1683               	bsf	3,5	;RP0=1, select bank1
  4480     077A  1303               	bcf	3,6	;RP1=0, select bank1
  4481     077B  0853               	movf	_time^(0+128),w
  4482     077C  1283               	bcf	3,5	;RP0=0, select bank0
  4483     077D  1303               	bcf	3,6	;RP1=0, select bank0
  4484     077E  00BE               	movwf	___fladd@a
  4485     077F  120A  118A  23A2  120A  118A  	fcall	___fladd
  4486     0784  1283               	bcf	3,5	;RP0=0, select bank0
  4487     0785  1303               	bcf	3,6	;RP1=0, select bank0
  4488     0786  083D               	movf	?___fladd+3,w
  4489     0787  1683               	bsf	3,5	;RP0=1, select bank1
  4490     0788  1303               	bcf	3,6	;RP1=0, select bank1
  4491     0789  00D6               	movwf	(_time+3)^(0+128)
  4492     078A  1283               	bcf	3,5	;RP0=0, select bank0
  4493     078B  1303               	bcf	3,6	;RP1=0, select bank0
  4494     078C  083C               	movf	?___fladd+2,w
  4495     078D  1683               	bsf	3,5	;RP0=1, select bank1
  4496     078E  1303               	bcf	3,6	;RP1=0, select bank1
  4497     078F  00D5               	movwf	(_time+2)^(0+128)
  4498     0790  1283               	bcf	3,5	;RP0=0, select bank0
  4499     0791  1303               	bcf	3,6	;RP1=0, select bank0
  4500     0792  083B               	movf	?___fladd+1,w
  4501     0793  1683               	bsf	3,5	;RP0=1, select bank1
  4502     0794  1303               	bcf	3,6	;RP1=0, select bank1
  4503     0795  00D4               	movwf	(_time+1)^(0+128)
  4504     0796  1283               	bcf	3,5	;RP0=0, select bank0
  4505     0797  1303               	bcf	3,6	;RP1=0, select bank0
  4506     0798  083A               	movf	?___fladd,w
  4507     0799  1683               	bsf	3,5	;RP0=1, select bank1
  4508     079A  1303               	bcf	3,6	;RP1=0, select bank1
  4509     079B  00D3               	movwf	_time^(0+128)
  4510     079C                     i1l367:	
  4511                           ;application.c: 163:             }
  4512                           
  4513                           
  4514                           ;application.c: 165:             distance = (time * 34000) / 2;
  4515     079C  3040               	movlw	64
  4516     079D  1283               	bcf	3,5	;RP0=0, select bank0
  4517     079E  1303               	bcf	3,6	;RP1=0, select bank0
  4518     079F  00BD               	movwf	___fldiv@a+3
  4519     07A0  3000               	movlw	0
  4520     07A1  00BC               	movwf	___fldiv@a+2
  4521     07A2  3000               	movlw	0
  4522     07A3  00BB               	movwf	___fldiv@a+1
  4523     07A4  3000               	movlw	0
  4524     07A5  00BA               	movwf	___fldiv@a
  4525     07A6  3047               	movlw	71
  4526     07A7  00A3               	movwf	___flmul@b+3
  4527     07A8  3004               	movlw	4
  4528     07A9  00A2               	movwf	___flmul@b+2
  4529     07AA  30D0               	movlw	208
  4530     07AB  00A1               	movwf	___flmul@b+1
  4531     07AC  3000               	movlw	0
  4532     07AD  00A0               	movwf	___flmul@b
  4533     07AE  1683               	bsf	3,5	;RP0=1, select bank1
  4534     07AF  1303               	bcf	3,6	;RP1=0, select bank1
  4535     07B0  0856               	movf	(_time+3)^(0+128),w
  4536     07B1  1283               	bcf	3,5	;RP0=0, select bank0
  4537     07B2  1303               	bcf	3,6	;RP1=0, select bank0
  4538     07B3  00A7               	movwf	___flmul@a+3
  4539     07B4  1683               	bsf	3,5	;RP0=1, select bank1
  4540     07B5  1303               	bcf	3,6	;RP1=0, select bank1
  4541     07B6  0855               	movf	(_time+2)^(0+128),w
  4542     07B7  1283               	bcf	3,5	;RP0=0, select bank0
  4543     07B8  1303               	bcf	3,6	;RP1=0, select bank0
  4544     07B9  00A6               	movwf	___flmul@a+2
  4545     07BA  1683               	bsf	3,5	;RP0=1, select bank1
  4546     07BB  1303               	bcf	3,6	;RP1=0, select bank1
  4547     07BC  0854               	movf	(_time+1)^(0+128),w
  4548     07BD  1283               	bcf	3,5	;RP0=0, select bank0
  4549     07BE  1303               	bcf	3,6	;RP1=0, select bank0
  4550     07BF  00A5               	movwf	___flmul@a+1
  4551     07C0  1683               	bsf	3,5	;RP0=1, select bank1
  4552     07C1  1303               	bcf	3,6	;RP1=0, select bank1
  4553     07C2  0853               	movf	_time^(0+128),w
  4554     07C3  1283               	bcf	3,5	;RP0=0, select bank0
  4555     07C4  1303               	bcf	3,6	;RP1=0, select bank0
  4556     07C5  00A4               	movwf	___flmul@a
  4557     07C6  120A  118A  205D  120A  118A  	fcall	___flmul
  4558     07CB  1283               	bcf	3,5	;RP0=0, select bank0
  4559     07CC  1303               	bcf	3,6	;RP1=0, select bank0
  4560     07CD  0823               	movf	?___flmul+3,w
  4561     07CE  00C1               	movwf	___fldiv@b+3
  4562     07CF  0822               	movf	?___flmul+2,w
  4563     07D0  00C0               	movwf	___fldiv@b+2
  4564     07D1  0821               	movf	?___flmul+1,w
  4565     07D2  00BF               	movwf	___fldiv@b+1
  4566     07D3  0820               	movf	?___flmul,w
  4567     07D4  00BE               	movwf	___fldiv@b
  4568     07D5  120A  158A  2631  120A  118A  	fcall	___fldiv
  4569     07DA  1283               	bcf	3,5	;RP0=0, select bank0
  4570     07DB  1303               	bcf	3,6	;RP1=0, select bank0
  4571     07DC  083D               	movf	?___fldiv+3,w
  4572     07DD  1683               	bsf	3,5	;RP0=1, select bank1
  4573     07DE  1303               	bcf	3,6	;RP1=0, select bank1
  4574     07DF  00D2               	movwf	(_distance+3)^(0+128)
  4575     07E0  1283               	bcf	3,5	;RP0=0, select bank0
  4576     07E1  1303               	bcf	3,6	;RP1=0, select bank0
  4577     07E2  083C               	movf	?___fldiv+2,w
  4578     07E3  1683               	bsf	3,5	;RP0=1, select bank1
  4579     07E4  1303               	bcf	3,6	;RP1=0, select bank1
  4580     07E5  00D1               	movwf	(_distance+2)^(0+128)
  4581     07E6  1283               	bcf	3,5	;RP0=0, select bank0
  4582     07E7  1303               	bcf	3,6	;RP1=0, select bank0
  4583     07E8  083B               	movf	?___fldiv+1,w
  4584     07E9  1683               	bsf	3,5	;RP0=1, select bank1
  4585     07EA  1303               	bcf	3,6	;RP1=0, select bank1
  4586     07EB  00D0               	movwf	(_distance+1)^(0+128)
  4587     07EC  1283               	bcf	3,5	;RP0=0, select bank0
  4588     07ED  1303               	bcf	3,6	;RP1=0, select bank0
  4589     07EE  083A               	movf	?___fldiv,w
  4590     07EF  1683               	bsf	3,5	;RP0=1, select bank1
  4591     07F0  1303               	bcf	3,6	;RP1=0, select bank1
  4592     07F1  00CF               	movwf	_distance^(0+128)
  4593     07F2                     i1l368:
  4594     07F2  0008               	return
  4595     07F3                     __end_of_ccp1_isr:
  4596                           
  4597                           	psect	text23
  4598     17CD                     __ptext23:	
  4599 ;; *************** function _ccp1_change_mode *****************
  4600 ;; Defined at:
  4601 ;;		line 34 in file "MCAL_Layer/CCP/hal_ccp.c"
  4602 ;; Parameters:    Size  Location     Type
  4603 ;;  mode            1    wreg     unsigned char 
  4604 ;; Auto vars:     Size  Location     Type
  4605 ;;  mode            1    0[COMMON] unsigned char 
  4606 ;; Return value:  Size  Location     Type
  4607 ;;                  1    wreg      void 
  4608 ;; Registers used:
  4609 ;;		wreg, status,2, status,0
  4610 ;; Tracked objects:
  4611 ;;		On entry : 0/0
  4612 ;;		On exit  : 0/0
  4613 ;;		Unchanged: 0/0
  4614 ;; Data sizes:     COMMON   BANK0   BANK1   BANK3   BANK2
  4615 ;;      Params:         0       0       0       0       0
  4616 ;;      Locals:         1       0       0       0       0
  4617 ;;      Temps:          0       0       0       0       0
  4618 ;;      Totals:         1       0       0       0       0
  4619 ;;Total ram usage:        1 bytes
  4620 ;; Hardware stack levels used: 1
  4621 ;; This function calls:
  4622 ;;		Nothing
  4623 ;; This function is called by:
  4624 ;;		_ccp1_isr
  4625 ;; This function uses a non-reentrant model
  4626 ;;
  4627                           
  4628     17CD                     _ccp1_change_mode:	
  4629                           ;psect for function _ccp1_change_mode
  4630                           
  4631                           
  4632                           ;incstack = 0
  4633                           ; Regs used in _ccp1_change_mode: [wreg+status,2+status,0]
  4634                           ;ccp1_change_mode@mode stored from wreg
  4635     17CD  00F0               	movwf	ccp1_change_mode@mode
  4636     17CE                     i1l2162:
  4637                           
  4638                           ;MCAL_Layer/CCP/hal_ccp.c: 34: void ccp1_change_mode(uint8 mode);MCAL_Layer/CCP/hal_ccp.
      +                          c: 35: {;MCAL_Layer/CCP/hal_ccp.c: 36:     (CCP1CONbits.CCP1M = 0);
  4639     17CE  30F0               	movlw	-16
  4640     17CF  1283               	bcf	3,5	;RP0=0, select bank0
  4641     17D0  1303               	bcf	3,6	;RP1=0, select bank0
  4642     17D1  0597               	andwf	23,f	;volatile
  4643                           
  4644                           ;MCAL_Layer/CCP/hal_ccp.c: 37:     (CCP1CONbits.CCP1M = mode);
  4645     17D2  0817               	movf	23,w	;volatile
  4646     17D3  0670               	xorwf	ccp1_change_mode@mode,w
  4647     17D4  39F0               	andlw	-16
  4648     17D5  0670               	xorwf	ccp1_change_mode@mode,w
  4649     17D6  0097               	movwf	23	;volatile
  4650     17D7                     i1l2164:
  4651                           
  4652                           ;MCAL_Layer/CCP/hal_ccp.c: 38:     (PIR1bits.CCP1IF = 0);
  4653     17D7  110C               	bcf	12,2	;volatile
  4654     17D8                     i1l35:
  4655     17D8  0008               	return
  4656     17D9                     __end_of_ccp1_change_mode:
  4657                           
  4658                           	psect	text24
  4659     0D79                     __ptext24:	
  4660 ;; *************** function ___xxtofl *****************
  4661 ;; Defined at:
  4662 ;;		line 10 in file "C:\Program Files\Microchip\xc8\v2.45\pic\sources\c99\common\xxtofl.c"
  4663 ;; Parameters:    Size  Location     Type
  4664 ;;  sign            1    wreg     unsigned char 
  4665 ;;  val             4    0[COMMON] long 
  4666 ;; Auto vars:     Size  Location     Type
  4667 ;;  sign            1    8[COMMON] unsigned char 
  4668 ;;  arg             4   10[COMMON] unsigned long 
  4669 ;;  exp             1    9[COMMON] unsigned char 
  4670 ;; Return value:  Size  Location     Type
  4671 ;;                  4    0[COMMON] unsigned char 
  4672 ;; Registers used:
  4673 ;;		wreg, status,2, status,0, btemp+1
  4674 ;; Tracked objects:
  4675 ;;		On entry : 0/0
  4676 ;;		On exit  : 0/0
  4677 ;;		Unchanged: 0/0
  4678 ;; Data sizes:     COMMON   BANK0   BANK1   BANK3   BANK2
  4679 ;;      Params:         4       0       0       0       0
  4680 ;;      Locals:         6       0       0       0       0
  4681 ;;      Temps:          4       0       0       0       0
  4682 ;;      Totals:        14       0       0       0       0
  4683 ;;Total ram usage:       14 bytes
  4684 ;; Hardware stack levels used: 1
  4685 ;; This function calls:
  4686 ;;		Nothing
  4687 ;; This function is called by:
  4688 ;;		_ccp1_isr
  4689 ;; This function uses a non-reentrant model
  4690 ;;
  4691                           
  4692     0D79                     ___xxtofl:	
  4693                           ;psect for function ___xxtofl
  4694                           
  4695                           
  4696                           ;incstack = 0
  4697                           ; Regs used in ___xxtofl: [wreg+status,2+status,0+btemp+1]
  4698                           ;___xxtofl@sign stored from wreg
  4699     0D79  00F8               	movwf	___xxtofl@sign
  4700     0D7A                     i1l2714:
  4701     0D7A  0878               	movf	___xxtofl@sign,w
  4702     0D7B  1903               	btfsc	3,2
  4703     0D7C  2D7E               	goto	u330_21
  4704     0D7D  2D7F               	goto	u330_20
  4705     0D7E                     u330_21:
  4706     0D7E  2D93               	goto	i1l2720
  4707     0D7F                     u330_20:
  4708     0D7F                     i1l2716:
  4709     0D7F  1FF3               	btfss	___xxtofl@val+3,7
  4710     0D80  2D82               	goto	u331_21
  4711     0D81  2D83               	goto	u331_20
  4712     0D82                     u331_21:
  4713     0D82  2D93               	goto	i1l2720
  4714     0D83                     u331_20:
  4715     0D83                     i1l2718:
  4716     0D83  0970               	comf	___xxtofl@val,w
  4717     0D84  00FA               	movwf	___xxtofl@arg
  4718     0D85  0971               	comf	___xxtofl@val+1,w
  4719     0D86  00FB               	movwf	___xxtofl@arg+1
  4720     0D87  0972               	comf	___xxtofl@val+2,w
  4721     0D88  00FC               	movwf	___xxtofl@arg+2
  4722     0D89  0973               	comf	___xxtofl@val+3,w
  4723     0D8A  00FD               	movwf	___xxtofl@arg+3
  4724     0D8B  0AFA               	incf	___xxtofl@arg,f
  4725     0D8C  1903               	skipnz
  4726     0D8D  0AFB               	incf	___xxtofl@arg+1,f
  4727     0D8E  1903               	skipnz
  4728     0D8F  0AFC               	incf	___xxtofl@arg+2,f
  4729     0D90  1903               	skipnz
  4730     0D91  0AFD               	incf	___xxtofl@arg+3,f
  4731     0D92  2D9B               	goto	i1l911
  4732     0D93                     i1l2720:
  4733     0D93  0873               	movf	___xxtofl@val+3,w
  4734     0D94  00FD               	movwf	___xxtofl@arg+3
  4735     0D95  0872               	movf	___xxtofl@val+2,w
  4736     0D96  00FC               	movwf	___xxtofl@arg+2
  4737     0D97  0871               	movf	___xxtofl@val+1,w
  4738     0D98  00FB               	movwf	___xxtofl@arg+1
  4739     0D99  0870               	movf	___xxtofl@val,w
  4740     0D9A  00FA               	movwf	___xxtofl@arg
  4741     0D9B                     i1l911:
  4742     0D9B  0873               	movf	___xxtofl@val+3,w
  4743     0D9C  0472               	iorwf	___xxtofl@val+2,w
  4744     0D9D  0471               	iorwf	___xxtofl@val+1,w
  4745     0D9E  0470               	iorwf	___xxtofl@val,w
  4746     0D9F  1D03               	skipz
  4747     0DA0  2DA2               	goto	u332_21
  4748     0DA1  2DA3               	goto	u332_20
  4749     0DA2                     u332_21:
  4750     0DA2  2DAC               	goto	i1l2726
  4751     0DA3                     u332_20:
  4752     0DA3                     i1l2722:
  4753     0DA3  3000               	movlw	0
  4754     0DA4  00F3               	movwf	?___xxtofl+3
  4755     0DA5  3000               	movlw	0
  4756     0DA6  00F2               	movwf	?___xxtofl+2
  4757     0DA7  3000               	movlw	0
  4758     0DA8  00F1               	movwf	?___xxtofl+1
  4759     0DA9  3000               	movlw	0
  4760     0DAA  00F0               	movwf	?___xxtofl
  4761     0DAB  2E30               	goto	i1l913
  4762     0DAC                     i1l2726:
  4763     0DAC  3096               	movlw	150
  4764     0DAD  00F9               	movwf	___xxtofl@exp
  4765     0DAE  2DBC               	goto	i1l2732
  4766     0DAF                     i1l2728:
  4767     0DAF  3001               	movlw	1
  4768     0DB0  00FF               	movwf	btemp+1
  4769     0DB1  087F               	movf	btemp+1,w
  4770     0DB2  07F9               	addwf	___xxtofl@exp,f
  4771     0DB3                     i1l2730:
  4772     0DB3  3001               	movlw	1
  4773     0DB4                     u333_25:
  4774     0DB4  1003               	clrc
  4775     0DB5  0CFD               	rrf	___xxtofl@arg+3,f
  4776     0DB6  0CFC               	rrf	___xxtofl@arg+2,f
  4777     0DB7  0CFB               	rrf	___xxtofl@arg+1,f
  4778     0DB8  0CFA               	rrf	___xxtofl@arg,f
  4779     0DB9  3EFF               	addlw	-1
  4780     0DBA  1D03               	skipz
  4781     0DBB  2DB4               	goto	u333_25
  4782     0DBC                     i1l2732:
  4783     0DBC  30FE               	movlw	254
  4784     0DBD  057D               	andwf	___xxtofl@arg+3,w
  4785     0DBE  1D03               	btfss	3,2
  4786     0DBF  2DC1               	goto	u334_21
  4787     0DC0  2DC2               	goto	u334_20
  4788     0DC1                     u334_21:
  4789     0DC1  2DAF               	goto	i1l2728
  4790     0DC2                     u334_20:
  4791     0DC2  2DDE               	goto	i1l2740
  4792     0DC3                     i1l2734:
  4793     0DC3  3001               	movlw	1
  4794     0DC4  00FF               	movwf	btemp+1
  4795     0DC5  087F               	movf	btemp+1,w
  4796     0DC6  07F9               	addwf	___xxtofl@exp,f
  4797     0DC7                     i1l2736:
  4798     0DC7  3001               	movlw	1
  4799     0DC8  07FA               	addwf	___xxtofl@arg,f
  4800     0DC9  3000               	movlw	0
  4801     0DCA  1803               	skipnc
  4802     0DCB  3001               	movlw	1
  4803     0DCC  07FB               	addwf	___xxtofl@arg+1,f
  4804     0DCD  3000               	movlw	0
  4805     0DCE  1803               	skipnc
  4806     0DCF  3001               	movlw	1
  4807     0DD0  07FC               	addwf	___xxtofl@arg+2,f
  4808     0DD1  3000               	movlw	0
  4809     0DD2  1803               	skipnc
  4810     0DD3  3001               	movlw	1
  4811     0DD4  07FD               	addwf	___xxtofl@arg+3,f
  4812     0DD5                     i1l2738:
  4813     0DD5  3001               	movlw	1
  4814     0DD6                     u335_25:
  4815     0DD6  1003               	clrc
  4816     0DD7  0CFD               	rrf	___xxtofl@arg+3,f
  4817     0DD8  0CFC               	rrf	___xxtofl@arg+2,f
  4818     0DD9  0CFB               	rrf	___xxtofl@arg+1,f
  4819     0DDA  0CFA               	rrf	___xxtofl@arg,f
  4820     0DDB  3EFF               	addlw	-1
  4821     0DDC  1D03               	skipz
  4822     0DDD  2DD6               	goto	u335_25
  4823     0DDE                     i1l2740:
  4824     0DDE  30FF               	movlw	255
  4825     0DDF  057D               	andwf	___xxtofl@arg+3,w
  4826     0DE0  1D03               	btfss	3,2
  4827     0DE1  2DE3               	goto	u336_21
  4828     0DE2  2DE4               	goto	u336_20
  4829     0DE3                     u336_21:
  4830     0DE3  2DC3               	goto	i1l2734
  4831     0DE4                     u336_20:
  4832     0DE4  2DF0               	goto	i1l2744
  4833     0DE5                     i1l2742:
  4834     0DE5  3001               	movlw	1
  4835     0DE6  02F9               	subwf	___xxtofl@exp,f
  4836     0DE7  3001               	movlw	1
  4837     0DE8  00F4               	movwf	??___xxtofl
  4838     0DE9                     u337_25:
  4839     0DE9  1003               	clrc
  4840     0DEA  0DFA               	rlf	___xxtofl@arg,f
  4841     0DEB  0DFB               	rlf	___xxtofl@arg+1,f
  4842     0DEC  0DFC               	rlf	___xxtofl@arg+2,f
  4843     0DED  0DFD               	rlf	___xxtofl@arg+3,f
  4844     0DEE  0BF4               	decfsz	??___xxtofl,f
  4845     0DEF  2DE9               	goto	u337_25
  4846     0DF0                     i1l2744:
  4847     0DF0  1BFC               	btfsc	___xxtofl@arg+2,7
  4848     0DF1  2DF3               	goto	u338_21
  4849     0DF2  2DF4               	goto	u338_20
  4850     0DF3                     u338_21:
  4851     0DF3  2DFA               	goto	i1l924
  4852     0DF4                     u338_20:
  4853     0DF4                     i1l2746:
  4854     0DF4  3002               	movlw	2
  4855     0DF5  0279               	subwf	___xxtofl@exp,w
  4856     0DF6  1803               	skipnc
  4857     0DF7  2DF9               	goto	u339_21
  4858     0DF8  2DFA               	goto	u339_20
  4859     0DF9                     u339_21:
  4860     0DF9  2DE5               	goto	i1l2742
  4861     0DFA                     u339_20:
  4862     0DFA                     i1l924:
  4863     0DFA  1879               	btfsc	___xxtofl@exp,0
  4864     0DFB  2DFD               	goto	u340_21
  4865     0DFC  2DFE               	goto	u340_20
  4866     0DFD                     u340_21:
  4867     0DFD  2E06               	goto	i1l925
  4868     0DFE                     u340_20:
  4869     0DFE                     i1l2748:
  4870     0DFE  30FF               	movlw	255
  4871     0DFF  05FA               	andwf	___xxtofl@arg,f
  4872     0E00  30FF               	movlw	255
  4873     0E01  05FB               	andwf	___xxtofl@arg+1,f
  4874     0E02  307F               	movlw	127
  4875     0E03  05FC               	andwf	___xxtofl@arg+2,f
  4876     0E04  30FF               	movlw	255
  4877     0E05  05FD               	andwf	___xxtofl@arg+3,f
  4878     0E06                     i1l925:
  4879     0E06  1003               	clrc
  4880     0E07  0CF9               	rrf	___xxtofl@exp,f
  4881     0E08                     i1l2750:
  4882     0E08  0879               	movf	___xxtofl@exp,w
  4883     0E09  00F4               	movwf	??___xxtofl
  4884     0E0A  01F5               	clrf	??___xxtofl+1
  4885     0E0B  01F6               	clrf	??___xxtofl+2
  4886     0E0C  01F7               	clrf	??___xxtofl+3
  4887     0E0D  3018               	movlw	24
  4888     0E0E                     u341_25:
  4889     0E0E  1003               	clrc
  4890     0E0F  0DF4               	rlf	??___xxtofl,f
  4891     0E10  0DF5               	rlf	??___xxtofl+1,f
  4892     0E11  0DF6               	rlf	??___xxtofl+2,f
  4893     0E12  0DF7               	rlf	??___xxtofl+3,f
  4894     0E13                     u341_20:
  4895     0E13  3EFF               	addlw	-1
  4896     0E14  1D03               	skipz
  4897     0E15  2E0E               	goto	u341_25
  4898     0E16  0874               	movf	??___xxtofl,w
  4899     0E17  04FA               	iorwf	___xxtofl@arg,f
  4900     0E18  0875               	movf	??___xxtofl+1,w
  4901     0E19  04FB               	iorwf	___xxtofl@arg+1,f
  4902     0E1A  0876               	movf	??___xxtofl+2,w
  4903     0E1B  04FC               	iorwf	___xxtofl@arg+2,f
  4904     0E1C  0877               	movf	??___xxtofl+3,w
  4905     0E1D  04FD               	iorwf	___xxtofl@arg+3,f
  4906     0E1E                     i1l2752:
  4907     0E1E  0878               	movf	___xxtofl@sign,w
  4908     0E1F  1903               	btfsc	3,2
  4909     0E20  2E22               	goto	u342_21
  4910     0E21  2E23               	goto	u342_20
  4911     0E22                     u342_21:
  4912     0E22  2E28               	goto	i1l2758
  4913     0E23                     u342_20:
  4914     0E23                     i1l2754:
  4915     0E23  1FF3               	btfss	___xxtofl@val+3,7
  4916     0E24  2E26               	goto	u343_21
  4917     0E25  2E27               	goto	u343_20
  4918     0E26                     u343_21:
  4919     0E26  2E28               	goto	i1l2758
  4920     0E27                     u343_20:
  4921     0E27                     i1l2756:
  4922     0E27  17FD               	bsf	___xxtofl@arg+3,7
  4923     0E28                     i1l2758:
  4924     0E28  087D               	movf	___xxtofl@arg+3,w
  4925     0E29  00F3               	movwf	?___xxtofl+3
  4926     0E2A  087C               	movf	___xxtofl@arg+2,w
  4927     0E2B  00F2               	movwf	?___xxtofl+2
  4928     0E2C  087B               	movf	___xxtofl@arg+1,w
  4929     0E2D  00F1               	movwf	?___xxtofl+1
  4930     0E2E  087A               	movf	___xxtofl@arg,w
  4931     0E2F  00F0               	movwf	?___xxtofl
  4932     0E30                     i1l913:
  4933     0E30  0008               	return
  4934     0E31                     __end_of___xxtofl:
  4935                           
  4936                           	psect	text25
  4937     005D                     __ptext25:	
  4938 ;; *************** function ___flmul *****************
  4939 ;; Defined at:
  4940 ;;		line 8 in file "C:\Program Files\Microchip\xc8\v2.45\pic\sources\c99\common\sprcmul.c"
  4941 ;; Parameters:    Size  Location     Type
  4942 ;;  b               4    0[BANK0 ] unsigned char 
  4943 ;;  a               4    4[BANK0 ] unsigned char 
  4944 ;; Auto vars:     Size  Location     Type
  4945 ;;  prod            4   20[BANK0 ] struct .
  4946 ;;  grs             4   14[BANK0 ] unsigned long 
  4947 ;;  temp            2   24[BANK0 ] struct .
  4948 ;;  bexp            1   19[BANK0 ] unsigned char 
  4949 ;;  aexp            1   18[BANK0 ] unsigned char 
  4950 ;;  sign            1   13[BANK0 ] unsigned char 
  4951 ;; Return value:  Size  Location     Type
  4952 ;;                  4    0[BANK0 ] unsigned char 
  4953 ;; Registers used:
  4954 ;;		wreg, status,2, status,0, btemp+1, pclath, cstack
  4955 ;; Tracked objects:
  4956 ;;		On entry : 0/0
  4957 ;;		On exit  : 0/0
  4958 ;;		Unchanged: 0/0
  4959 ;; Data sizes:     COMMON   BANK0   BANK1   BANK3   BANK2
  4960 ;;      Params:         0       8       0       0       0
  4961 ;;      Locals:         0      13       0       0       0
  4962 ;;      Temps:          0       5       0       0       0
  4963 ;;      Totals:         0      26       0       0       0
  4964 ;;Total ram usage:       26 bytes
  4965 ;; Hardware stack levels used: 1
  4966 ;; Hardware stack levels required when called: 1
  4967 ;; This function calls:
  4968 ;;		__Umul8_16
  4969 ;; This function is called by:
  4970 ;;		_ccp1_isr
  4971 ;; This function uses a non-reentrant model
  4972 ;;
  4973                           
  4974     005D                     ___flmul:	
  4975                           ;psect for function ___flmul
  4976                           
  4977     005D                     i1l2572:	
  4978                           ;incstack = 0
  4979                           ; Regs used in ___flmul: [wreg+status,2+status,0+btemp+1+pclath+cstack]
  4980                           
  4981     005D  1283               	bcf	3,5	;RP0=0, select bank0
  4982     005E  1303               	bcf	3,6	;RP1=0, select bank0
  4983     005F  0823               	movf	___flmul@b+3,w
  4984     0060  3980               	andlw	128
  4985     0061  00AD               	movwf	___flmul@sign
  4986     0062                     i1l2574:
  4987     0062  0823               	movf	___flmul@b+3,w
  4988     0063  00A8               	movwf	??___flmul
  4989     0064  0728               	addwf	??___flmul,w
  4990     0065  00B3               	movwf	___flmul@bexp
  4991     0066                     i1l2576:
  4992     0066  1FA2               	btfss	___flmul@b+2,7
  4993     0067  2869               	goto	u293_21
  4994     0068  286A               	goto	u293_20
  4995     0069                     u293_21:
  4996     0069  286B               	goto	i1l2580
  4997     006A                     u293_20:
  4998     006A                     i1l2578:
  4999     006A  1433               	bsf	___flmul@bexp,0
  5000     006B                     i1l2580:
  5001     006B  0833               	movf	___flmul@bexp,w
  5002     006C  1903               	btfsc	3,2
  5003     006D  286F               	goto	u294_21
  5004     006E  2870               	goto	u294_20
  5005     006F                     u294_21:
  5006     006F  287F               	goto	i1l2588
  5007     0070                     u294_20:
  5008     0070                     i1l2582:
  5009     0070  0A33               	incf	___flmul@bexp,w
  5010     0071  1D03               	btfss	3,2
  5011     0072  2874               	goto	u295_21
  5012     0073  2875               	goto	u295_20
  5013     0074                     u295_21:
  5014     0074  287D               	goto	i1l2586
  5015     0075                     u295_20:
  5016     0075                     i1l2584:
  5017     0075  3000               	movlw	0
  5018     0076  00A3               	movwf	___flmul@b+3
  5019     0077  3000               	movlw	0
  5020     0078  00A2               	movwf	___flmul@b+2
  5021     0079  3000               	movlw	0
  5022     007A  00A1               	movwf	___flmul@b+1
  5023     007B  3000               	movlw	0
  5024     007C  00A0               	movwf	___flmul@b
  5025     007D                     i1l2586:
  5026     007D  17A2               	bsf	___flmul@b+2,7
  5027     007E  2887               	goto	i1l2590
  5028     007F                     i1l2588:
  5029     007F  3000               	movlw	0
  5030     0080  00A3               	movwf	___flmul@b+3
  5031     0081  3000               	movlw	0
  5032     0082  00A2               	movwf	___flmul@b+2
  5033     0083  3000               	movlw	0
  5034     0084  00A1               	movwf	___flmul@b+1
  5035     0085  3000               	movlw	0
  5036     0086  00A0               	movwf	___flmul@b
  5037     0087                     i1l2590:
  5038     0087  0827               	movf	___flmul@a+3,w
  5039     0088  3980               	andlw	128
  5040     0089  00FF               	movwf	btemp+1
  5041     008A  087F               	movf	btemp+1,w
  5042     008B  06AD               	xorwf	___flmul@sign,f
  5043     008C                     i1l2592:
  5044     008C  0827               	movf	___flmul@a+3,w
  5045     008D  00A8               	movwf	??___flmul
  5046     008E  0728               	addwf	??___flmul,w
  5047     008F  00B2               	movwf	___flmul@aexp
  5048     0090                     i1l2594:
  5049     0090  1FA6               	btfss	___flmul@a+2,7
  5050     0091  2893               	goto	u296_21
  5051     0092  2894               	goto	u296_20
  5052     0093                     u296_21:
  5053     0093  2895               	goto	i1l2598
  5054     0094                     u296_20:
  5055     0094                     i1l2596:
  5056     0094  1432               	bsf	___flmul@aexp,0
  5057     0095                     i1l2598:
  5058     0095  0832               	movf	___flmul@aexp,w
  5059     0096  1903               	btfsc	3,2
  5060     0097  2899               	goto	u297_21
  5061     0098  289A               	goto	u297_20
  5062     0099                     u297_21:
  5063     0099  28A9               	goto	i1l2606
  5064     009A                     u297_20:
  5065     009A                     i1l2600:
  5066     009A  0A32               	incf	___flmul@aexp,w
  5067     009B  1D03               	btfss	3,2
  5068     009C  289E               	goto	u298_21
  5069     009D  289F               	goto	u298_20
  5070     009E                     u298_21:
  5071     009E  28A7               	goto	i1l2604
  5072     009F                     u298_20:
  5073     009F                     i1l2602:
  5074     009F  3000               	movlw	0
  5075     00A0  00A7               	movwf	___flmul@a+3
  5076     00A1  3000               	movlw	0
  5077     00A2  00A6               	movwf	___flmul@a+2
  5078     00A3  3000               	movlw	0
  5079     00A4  00A5               	movwf	___flmul@a+1
  5080     00A5  3000               	movlw	0
  5081     00A6  00A4               	movwf	___flmul@a
  5082     00A7                     i1l2604:
  5083     00A7  17A6               	bsf	___flmul@a+2,7
  5084     00A8  28B1               	goto	i1l2608
  5085     00A9                     i1l2606:
  5086     00A9  3000               	movlw	0
  5087     00AA  00A7               	movwf	___flmul@a+3
  5088     00AB  3000               	movlw	0
  5089     00AC  00A6               	movwf	___flmul@a+2
  5090     00AD  3000               	movlw	0
  5091     00AE  00A5               	movwf	___flmul@a+1
  5092     00AF  3000               	movlw	0
  5093     00B0  00A4               	movwf	___flmul@a
  5094     00B1                     i1l2608:
  5095     00B1  0832               	movf	___flmul@aexp,w
  5096     00B2  1903               	btfsc	3,2
  5097     00B3  28B5               	goto	u299_21
  5098     00B4  28B6               	goto	u299_20
  5099     00B5                     u299_21:
  5100     00B5  28BB               	goto	i1l2612
  5101     00B6                     u299_20:
  5102     00B6                     i1l2610:
  5103     00B6  0833               	movf	___flmul@bexp,w
  5104     00B7  1D03               	btfss	3,2
  5105     00B8  28BA               	goto	u300_21
  5106     00B9  28BB               	goto	u300_20
  5107     00BA                     u300_21:
  5108     00BA  28C4               	goto	i1l2616
  5109     00BB                     u300_20:
  5110     00BB                     i1l2612:
  5111     00BB  3000               	movlw	0
  5112     00BC  00A3               	movwf	?___flmul+3
  5113     00BD  3000               	movlw	0
  5114     00BE  00A2               	movwf	?___flmul+2
  5115     00BF  3000               	movlw	0
  5116     00C0  00A1               	movwf	?___flmul+1
  5117     00C1  3000               	movlw	0
  5118     00C2  00A0               	movwf	?___flmul
  5119     00C3  2BA1               	goto	i1l867
  5120     00C4                     i1l2616:
  5121     00C4  0820               	movf	___flmul@b,w
  5122     00C5  00F0               	movwf	__Umul8_16@multiplicand
  5123     00C6  0826               	movf	___flmul@a+2,w
  5124     00C7  120A  158A  2062  120A  118A  	fcall	__Umul8_16
  5125     00CC  0871               	movf	?__Umul8_16+1,w
  5126     00CD  1283               	bcf	3,5	;RP0=0, select bank0
  5127     00CE  1303               	bcf	3,6	;RP1=0, select bank0
  5128     00CF  00B9               	movwf	___flmul@temp+1
  5129     00D0  0870               	movf	?__Umul8_16,w
  5130     00D1  00B8               	movwf	___flmul@temp
  5131     00D2                     i1l2618:
  5132     00D2  0838               	movf	___flmul@temp,w
  5133     00D3  00A8               	movwf	??___flmul
  5134     00D4  01A9               	clrf	??___flmul+1
  5135     00D5  01AA               	clrf	??___flmul+2
  5136     00D6  01AB               	clrf	??___flmul+3
  5137     00D7  082B               	movf	??___flmul+3,w
  5138     00D8  00B1               	movwf	___flmul@grs+3
  5139     00D9  082A               	movf	??___flmul+2,w
  5140     00DA  00B0               	movwf	___flmul@grs+2
  5141     00DB  0829               	movf	??___flmul+1,w
  5142     00DC  00AF               	movwf	___flmul@grs+1
  5143     00DD  0828               	movf	??___flmul,w
  5144     00DE  00AE               	movwf	___flmul@grs
  5145     00DF                     i1l2620:
  5146     00DF  0839               	movf	___flmul@temp+1,w
  5147     00E0  00A8               	movwf	??___flmul
  5148     00E1  01A9               	clrf	??___flmul+1
  5149     00E2  01AA               	clrf	??___flmul+2
  5150     00E3  01AB               	clrf	??___flmul+3
  5151     00E4  082B               	movf	??___flmul+3,w
  5152     00E5  00B7               	movwf	___flmul@prod+3
  5153     00E6  082A               	movf	??___flmul+2,w
  5154     00E7  00B6               	movwf	___flmul@prod+2
  5155     00E8  0829               	movf	??___flmul+1,w
  5156     00E9  00B5               	movwf	___flmul@prod+1
  5157     00EA  0828               	movf	??___flmul,w
  5158     00EB  00B4               	movwf	___flmul@prod
  5159     00EC  0821               	movf	___flmul@b+1,w
  5160     00ED  00F0               	movwf	__Umul8_16@multiplicand
  5161     00EE  0825               	movf	___flmul@a+1,w
  5162     00EF  120A  158A  2062  120A  118A  	fcall	__Umul8_16
  5163     00F4  0871               	movf	?__Umul8_16+1,w
  5164     00F5  1283               	bcf	3,5	;RP0=0, select bank0
  5165     00F6  1303               	bcf	3,6	;RP1=0, select bank0
  5166     00F7  00B9               	movwf	___flmul@temp+1
  5167     00F8  0870               	movf	?__Umul8_16,w
  5168     00F9  00B8               	movwf	___flmul@temp
  5169     00FA                     i1l2622:
  5170     00FA  0838               	movf	___flmul@temp,w
  5171     00FB  00A8               	movwf	??___flmul
  5172     00FC  01A9               	clrf	??___flmul+1
  5173     00FD  01AA               	clrf	??___flmul+2
  5174     00FE  01AB               	clrf	??___flmul+3
  5175     00FF  0828               	movf	??___flmul,w
  5176     0100  07AE               	addwf	___flmul@grs,f
  5177     0101  0829               	movf	??___flmul+1,w
  5178     0102  1103               	clrz
  5179     0103  1803               	skipnc
  5180     0104  3E01               	addlw	1
  5181     0105  1903               	skipnz
  5182     0106  2908               	goto	u301_21
  5183     0107  07AF               	addwf	___flmul@grs+1,f
  5184     0108                     u301_21:
  5185     0108  082A               	movf	??___flmul+2,w
  5186     0109  1103               	clrz
  5187     010A  1803               	skipnc
  5188     010B  3E01               	addlw	1
  5189     010C  1903               	skipnz
  5190     010D  290F               	goto	u301_22
  5191     010E  07B0               	addwf	___flmul@grs+2,f
  5192     010F                     u301_22:
  5193     010F  082B               	movf	??___flmul+3,w
  5194     0110  1103               	clrz
  5195     0111  1803               	skipnc
  5196     0112  3E01               	addlw	1
  5197     0113  1903               	skipnz
  5198     0114  2916               	goto	u301_23
  5199     0115  07B1               	addwf	___flmul@grs+3,f
  5200     0116                     u301_23:
  5201     0116                     i1l2624:
  5202     0116  0839               	movf	___flmul@temp+1,w
  5203     0117  00A8               	movwf	??___flmul
  5204     0118  01A9               	clrf	??___flmul+1
  5205     0119  01AA               	clrf	??___flmul+2
  5206     011A  01AB               	clrf	??___flmul+3
  5207     011B  0828               	movf	??___flmul,w
  5208     011C  07B4               	addwf	___flmul@prod,f
  5209     011D  0829               	movf	??___flmul+1,w
  5210     011E  1103               	clrz
  5211     011F  1803               	skipnc
  5212     0120  3E01               	addlw	1
  5213     0121  1903               	skipnz
  5214     0122  2924               	goto	u302_21
  5215     0123  07B5               	addwf	___flmul@prod+1,f
  5216     0124                     u302_21:
  5217     0124  082A               	movf	??___flmul+2,w
  5218     0125  1103               	clrz
  5219     0126  1803               	skipnc
  5220     0127  3E01               	addlw	1
  5221     0128  1903               	skipnz
  5222     0129  292B               	goto	u302_22
  5223     012A  07B6               	addwf	___flmul@prod+2,f
  5224     012B                     u302_22:
  5225     012B  082B               	movf	??___flmul+3,w
  5226     012C  1103               	clrz
  5227     012D  1803               	skipnc
  5228     012E  3E01               	addlw	1
  5229     012F  1903               	skipnz
  5230     0130  2932               	goto	u302_23
  5231     0131  07B7               	addwf	___flmul@prod+3,f
  5232     0132                     u302_23:
  5233     0132  0822               	movf	___flmul@b+2,w
  5234     0133  00F0               	movwf	__Umul8_16@multiplicand
  5235     0134  0824               	movf	___flmul@a,w
  5236     0135  120A  158A  2062  120A  118A  	fcall	__Umul8_16
  5237     013A  0871               	movf	?__Umul8_16+1,w
  5238     013B  1283               	bcf	3,5	;RP0=0, select bank0
  5239     013C  1303               	bcf	3,6	;RP1=0, select bank0
  5240     013D  00B9               	movwf	___flmul@temp+1
  5241     013E  0870               	movf	?__Umul8_16,w
  5242     013F  00B8               	movwf	___flmul@temp
  5243     0140                     i1l2626:
  5244     0140  0838               	movf	___flmul@temp,w
  5245     0141  00A8               	movwf	??___flmul
  5246     0142  01A9               	clrf	??___flmul+1
  5247     0143  01AA               	clrf	??___flmul+2
  5248     0144  01AB               	clrf	??___flmul+3
  5249     0145  0828               	movf	??___flmul,w
  5250     0146  07AE               	addwf	___flmul@grs,f
  5251     0147  0829               	movf	??___flmul+1,w
  5252     0148  1103               	clrz
  5253     0149  1803               	skipnc
  5254     014A  3E01               	addlw	1
  5255     014B  1903               	skipnz
  5256     014C  294E               	goto	u303_21
  5257     014D  07AF               	addwf	___flmul@grs+1,f
  5258     014E                     u303_21:
  5259     014E  082A               	movf	??___flmul+2,w
  5260     014F  1103               	clrz
  5261     0150  1803               	skipnc
  5262     0151  3E01               	addlw	1
  5263     0152  1903               	skipnz
  5264     0153  2955               	goto	u303_22
  5265     0154  07B0               	addwf	___flmul@grs+2,f
  5266     0155                     u303_22:
  5267     0155  082B               	movf	??___flmul+3,w
  5268     0156  1103               	clrz
  5269     0157  1803               	skipnc
  5270     0158  3E01               	addlw	1
  5271     0159  1903               	skipnz
  5272     015A  295C               	goto	u303_23
  5273     015B  07B1               	addwf	___flmul@grs+3,f
  5274     015C                     u303_23:
  5275     015C                     i1l2628:
  5276     015C  0839               	movf	___flmul@temp+1,w
  5277     015D  00A8               	movwf	??___flmul
  5278     015E  01A9               	clrf	??___flmul+1
  5279     015F  01AA               	clrf	??___flmul+2
  5280     0160  01AB               	clrf	??___flmul+3
  5281     0161  0828               	movf	??___flmul,w
  5282     0162  07B4               	addwf	___flmul@prod,f
  5283     0163  0829               	movf	??___flmul+1,w
  5284     0164  1103               	clrz
  5285     0165  1803               	skipnc
  5286     0166  3E01               	addlw	1
  5287     0167  1903               	skipnz
  5288     0168  296A               	goto	u304_21
  5289     0169  07B5               	addwf	___flmul@prod+1,f
  5290     016A                     u304_21:
  5291     016A  082A               	movf	??___flmul+2,w
  5292     016B  1103               	clrz
  5293     016C  1803               	skipnc
  5294     016D  3E01               	addlw	1
  5295     016E  1903               	skipnz
  5296     016F  2971               	goto	u304_22
  5297     0170  07B6               	addwf	___flmul@prod+2,f
  5298     0171                     u304_22:
  5299     0171  082B               	movf	??___flmul+3,w
  5300     0172  1103               	clrz
  5301     0173  1803               	skipnc
  5302     0174  3E01               	addlw	1
  5303     0175  1903               	skipnz
  5304     0176  2978               	goto	u304_23
  5305     0177  07B7               	addwf	___flmul@prod+3,f
  5306     0178                     u304_23:
  5307     0178                     i1l2630:
  5308     0178  3008               	movlw	8
  5309     0179  00A8               	movwf	??___flmul
  5310     017A                     u305_25:
  5311     017A  1003               	clrc
  5312     017B  0DAE               	rlf	___flmul@grs,f
  5313     017C  0DAF               	rlf	___flmul@grs+1,f
  5314     017D  0DB0               	rlf	___flmul@grs+2,f
  5315     017E  0DB1               	rlf	___flmul@grs+3,f
  5316     017F  0BA8               	decfsz	??___flmul,f
  5317     0180  297A               	goto	u305_25
  5318     0181                     i1l2632:
  5319     0181  0821               	movf	___flmul@b+1,w
  5320     0182  00F0               	movwf	__Umul8_16@multiplicand
  5321     0183  0824               	movf	___flmul@a,w
  5322     0184  120A  158A  2062  120A  118A  	fcall	__Umul8_16
  5323     0189  0871               	movf	?__Umul8_16+1,w
  5324     018A  1283               	bcf	3,5	;RP0=0, select bank0
  5325     018B  1303               	bcf	3,6	;RP1=0, select bank0
  5326     018C  00B9               	movwf	___flmul@temp+1
  5327     018D  0870               	movf	?__Umul8_16,w
  5328     018E  00B8               	movwf	___flmul@temp
  5329     018F                     i1l2634:
  5330     018F  0838               	movf	___flmul@temp,w
  5331     0190  00A8               	movwf	??___flmul
  5332     0191  0839               	movf	___flmul@temp+1,w
  5333     0192  00A9               	movwf	??___flmul+1
  5334     0193  01AA               	clrf	??___flmul+2
  5335     0194  01AB               	clrf	??___flmul+3
  5336     0195  0828               	movf	??___flmul,w
  5337     0196  07AE               	addwf	___flmul@grs,f
  5338     0197  0829               	movf	??___flmul+1,w
  5339     0198  1103               	clrz
  5340     0199  1803               	skipnc
  5341     019A  3E01               	addlw	1
  5342     019B  1903               	skipnz
  5343     019C  299E               	goto	u306_21
  5344     019D  07AF               	addwf	___flmul@grs+1,f
  5345     019E                     u306_21:
  5346     019E  082A               	movf	??___flmul+2,w
  5347     019F  1103               	clrz
  5348     01A0  1803               	skipnc
  5349     01A1  3E01               	addlw	1
  5350     01A2  1903               	skipnz
  5351     01A3  29A5               	goto	u306_22
  5352     01A4  07B0               	addwf	___flmul@grs+2,f
  5353     01A5                     u306_22:
  5354     01A5  082B               	movf	??___flmul+3,w
  5355     01A6  1103               	clrz
  5356     01A7  1803               	skipnc
  5357     01A8  3E01               	addlw	1
  5358     01A9  1903               	skipnz
  5359     01AA  29AC               	goto	u306_23
  5360     01AB  07B1               	addwf	___flmul@grs+3,f
  5361     01AC                     u306_23:
  5362     01AC                     i1l2636:
  5363     01AC  0820               	movf	___flmul@b,w
  5364     01AD  00F0               	movwf	__Umul8_16@multiplicand
  5365     01AE  0825               	movf	___flmul@a+1,w
  5366     01AF  120A  158A  2062  120A  118A  	fcall	__Umul8_16
  5367     01B4  0871               	movf	?__Umul8_16+1,w
  5368     01B5  1283               	bcf	3,5	;RP0=0, select bank0
  5369     01B6  1303               	bcf	3,6	;RP1=0, select bank0
  5370     01B7  00B9               	movwf	___flmul@temp+1
  5371     01B8  0870               	movf	?__Umul8_16,w
  5372     01B9  00B8               	movwf	___flmul@temp
  5373     01BA                     i1l2638:
  5374     01BA  0838               	movf	___flmul@temp,w
  5375     01BB  00A8               	movwf	??___flmul
  5376     01BC  0839               	movf	___flmul@temp+1,w
  5377     01BD  00A9               	movwf	??___flmul+1
  5378     01BE  01AA               	clrf	??___flmul+2
  5379     01BF  01AB               	clrf	??___flmul+3
  5380     01C0  0828               	movf	??___flmul,w
  5381     01C1  07AE               	addwf	___flmul@grs,f
  5382     01C2  0829               	movf	??___flmul+1,w
  5383     01C3  1103               	clrz
  5384     01C4  1803               	skipnc
  5385     01C5  3E01               	addlw	1
  5386     01C6  1903               	skipnz
  5387     01C7  29C9               	goto	u307_21
  5388     01C8  07AF               	addwf	___flmul@grs+1,f
  5389     01C9                     u307_21:
  5390     01C9  082A               	movf	??___flmul+2,w
  5391     01CA  1103               	clrz
  5392     01CB  1803               	skipnc
  5393     01CC  3E01               	addlw	1
  5394     01CD  1903               	skipnz
  5395     01CE  29D0               	goto	u307_22
  5396     01CF  07B0               	addwf	___flmul@grs+2,f
  5397     01D0                     u307_22:
  5398     01D0  082B               	movf	??___flmul+3,w
  5399     01D1  1103               	clrz
  5400     01D2  1803               	skipnc
  5401     01D3  3E01               	addlw	1
  5402     01D4  1903               	skipnz
  5403     01D5  29D7               	goto	u307_23
  5404     01D6  07B1               	addwf	___flmul@grs+3,f
  5405     01D7                     u307_23:
  5406     01D7                     i1l2640:
  5407     01D7  3008               	movlw	8
  5408     01D8  00A8               	movwf	??___flmul
  5409     01D9                     u308_25:
  5410     01D9  1003               	clrc
  5411     01DA  0DAE               	rlf	___flmul@grs,f
  5412     01DB  0DAF               	rlf	___flmul@grs+1,f
  5413     01DC  0DB0               	rlf	___flmul@grs+2,f
  5414     01DD  0DB1               	rlf	___flmul@grs+3,f
  5415     01DE  0BA8               	decfsz	??___flmul,f
  5416     01DF  29D9               	goto	u308_25
  5417     01E0  0820               	movf	___flmul@b,w
  5418     01E1  00F0               	movwf	__Umul8_16@multiplicand
  5419     01E2  0824               	movf	___flmul@a,w
  5420     01E3  120A  158A  2062  120A  118A  	fcall	__Umul8_16
  5421     01E8  0871               	movf	?__Umul8_16+1,w
  5422     01E9  1283               	bcf	3,5	;RP0=0, select bank0
  5423     01EA  1303               	bcf	3,6	;RP1=0, select bank0
  5424     01EB  00B9               	movwf	___flmul@temp+1
  5425     01EC  0870               	movf	?__Umul8_16,w
  5426     01ED  00B8               	movwf	___flmul@temp
  5427     01EE                     i1l2642:
  5428     01EE  0838               	movf	___flmul@temp,w
  5429     01EF  00A8               	movwf	??___flmul
  5430     01F0  0839               	movf	___flmul@temp+1,w
  5431     01F1  00A9               	movwf	??___flmul+1
  5432     01F2  01AA               	clrf	??___flmul+2
  5433     01F3  01AB               	clrf	??___flmul+3
  5434     01F4  0828               	movf	??___flmul,w
  5435     01F5  07AE               	addwf	___flmul@grs,f
  5436     01F6  0829               	movf	??___flmul+1,w
  5437     01F7  1103               	clrz
  5438     01F8  1803               	skipnc
  5439     01F9  3E01               	addlw	1
  5440     01FA  1903               	skipnz
  5441     01FB  29FD               	goto	u309_21
  5442     01FC  07AF               	addwf	___flmul@grs+1,f
  5443     01FD                     u309_21:
  5444     01FD  082A               	movf	??___flmul+2,w
  5445     01FE  1103               	clrz
  5446     01FF  1803               	skipnc
  5447     0200  3E01               	addlw	1
  5448     0201  1903               	skipnz
  5449     0202  2A04               	goto	u309_22
  5450     0203  07B0               	addwf	___flmul@grs+2,f
  5451     0204                     u309_22:
  5452     0204  082B               	movf	??___flmul+3,w
  5453     0205  1103               	clrz
  5454     0206  1803               	skipnc
  5455     0207  3E01               	addlw	1
  5456     0208  1903               	skipnz
  5457     0209  2A0B               	goto	u309_23
  5458     020A  07B1               	addwf	___flmul@grs+3,f
  5459     020B                     u309_23:
  5460     020B                     i1l2644:
  5461     020B  0821               	movf	___flmul@b+1,w
  5462     020C  00F0               	movwf	__Umul8_16@multiplicand
  5463     020D  0826               	movf	___flmul@a+2,w
  5464     020E  120A  158A  2062  120A  118A  	fcall	__Umul8_16
  5465     0213  0871               	movf	?__Umul8_16+1,w
  5466     0214  1283               	bcf	3,5	;RP0=0, select bank0
  5467     0215  1303               	bcf	3,6	;RP1=0, select bank0
  5468     0216  00B9               	movwf	___flmul@temp+1
  5469     0217  0870               	movf	?__Umul8_16,w
  5470     0218  00B8               	movwf	___flmul@temp
  5471     0219  0838               	movf	___flmul@temp,w
  5472     021A  00A8               	movwf	??___flmul
  5473     021B  0839               	movf	___flmul@temp+1,w
  5474     021C  00A9               	movwf	??___flmul+1
  5475     021D  01AA               	clrf	??___flmul+2
  5476     021E  01AB               	clrf	??___flmul+3
  5477     021F  0828               	movf	??___flmul,w
  5478     0220  07B4               	addwf	___flmul@prod,f
  5479     0221  0829               	movf	??___flmul+1,w
  5480     0222  1103               	clrz
  5481     0223  1803               	skipnc
  5482     0224  3E01               	addlw	1
  5483     0225  1903               	skipnz
  5484     0226  2A28               	goto	u310_21
  5485     0227  07B5               	addwf	___flmul@prod+1,f
  5486     0228                     u310_21:
  5487     0228  082A               	movf	??___flmul+2,w
  5488     0229  1103               	clrz
  5489     022A  1803               	skipnc
  5490     022B  3E01               	addlw	1
  5491     022C  1903               	skipnz
  5492     022D  2A2F               	goto	u310_22
  5493     022E  07B6               	addwf	___flmul@prod+2,f
  5494     022F                     u310_22:
  5495     022F  082B               	movf	??___flmul+3,w
  5496     0230  1103               	clrz
  5497     0231  1803               	skipnc
  5498     0232  3E01               	addlw	1
  5499     0233  1903               	skipnz
  5500     0234  2A36               	goto	u310_23
  5501     0235  07B7               	addwf	___flmul@prod+3,f
  5502     0236                     u310_23:
  5503     0236                     i1l2646:
  5504     0236  0822               	movf	___flmul@b+2,w
  5505     0237  00F0               	movwf	__Umul8_16@multiplicand
  5506     0238  0825               	movf	___flmul@a+1,w
  5507     0239  120A  158A  2062  120A  118A  	fcall	__Umul8_16
  5508     023E  0871               	movf	?__Umul8_16+1,w
  5509     023F  1283               	bcf	3,5	;RP0=0, select bank0
  5510     0240  1303               	bcf	3,6	;RP1=0, select bank0
  5511     0241  00B9               	movwf	___flmul@temp+1
  5512     0242  0870               	movf	?__Umul8_16,w
  5513     0243  00B8               	movwf	___flmul@temp
  5514     0244                     i1l2648:
  5515     0244  0838               	movf	___flmul@temp,w
  5516     0245  00A8               	movwf	??___flmul
  5517     0246  0839               	movf	___flmul@temp+1,w
  5518     0247  00A9               	movwf	??___flmul+1
  5519     0248  01AA               	clrf	??___flmul+2
  5520     0249  01AB               	clrf	??___flmul+3
  5521     024A  0828               	movf	??___flmul,w
  5522     024B  07B4               	addwf	___flmul@prod,f
  5523     024C  0829               	movf	??___flmul+1,w
  5524     024D  1103               	clrz
  5525     024E  1803               	skipnc
  5526     024F  3E01               	addlw	1
  5527     0250  1903               	skipnz
  5528     0251  2A53               	goto	u311_21
  5529     0252  07B5               	addwf	___flmul@prod+1,f
  5530     0253                     u311_21:
  5531     0253  082A               	movf	??___flmul+2,w
  5532     0254  1103               	clrz
  5533     0255  1803               	skipnc
  5534     0256  3E01               	addlw	1
  5535     0257  1903               	skipnz
  5536     0258  2A5A               	goto	u311_22
  5537     0259  07B6               	addwf	___flmul@prod+2,f
  5538     025A                     u311_22:
  5539     025A  082B               	movf	??___flmul+3,w
  5540     025B  1103               	clrz
  5541     025C  1803               	skipnc
  5542     025D  3E01               	addlw	1
  5543     025E  1903               	skipnz
  5544     025F  2A61               	goto	u311_23
  5545     0260  07B7               	addwf	___flmul@prod+3,f
  5546     0261                     u311_23:
  5547     0261  0822               	movf	___flmul@b+2,w
  5548     0262  00F0               	movwf	__Umul8_16@multiplicand
  5549     0263  0826               	movf	___flmul@a+2,w
  5550     0264  120A  158A  2062  120A  118A  	fcall	__Umul8_16
  5551     0269  0871               	movf	?__Umul8_16+1,w
  5552     026A  1283               	bcf	3,5	;RP0=0, select bank0
  5553     026B  1303               	bcf	3,6	;RP1=0, select bank0
  5554     026C  00B9               	movwf	___flmul@temp+1
  5555     026D  0870               	movf	?__Umul8_16,w
  5556     026E  00B8               	movwf	___flmul@temp
  5557     026F                     i1l2650:
  5558     026F  0838               	movf	___flmul@temp,w
  5559     0270  00A8               	movwf	??___flmul
  5560     0271  0839               	movf	___flmul@temp+1,w
  5561     0272  00A9               	movwf	??___flmul+1
  5562     0273  01AA               	clrf	??___flmul+2
  5563     0274  01AB               	clrf	??___flmul+3
  5564     0275  3008               	movlw	8
  5565     0276                     u312_25:
  5566     0276  1003               	clrc
  5567     0277  0DA8               	rlf	??___flmul,f
  5568     0278  0DA9               	rlf	??___flmul+1,f
  5569     0279  0DAA               	rlf	??___flmul+2,f
  5570     027A  0DAB               	rlf	??___flmul+3,f
  5571     027B                     u312_20:
  5572     027B  3EFF               	addlw	-1
  5573     027C  1D03               	skipz
  5574     027D  2A76               	goto	u312_25
  5575     027E  0828               	movf	??___flmul,w
  5576     027F  07B4               	addwf	___flmul@prod,f
  5577     0280  0829               	movf	??___flmul+1,w
  5578     0281  1103               	clrz
  5579     0282  1803               	skipnc
  5580     0283  3E01               	addlw	1
  5581     0284  1903               	skipnz
  5582     0285  2A87               	goto	u313_21
  5583     0286  07B5               	addwf	___flmul@prod+1,f
  5584     0287                     u313_21:
  5585     0287  082A               	movf	??___flmul+2,w
  5586     0288  1103               	clrz
  5587     0289  1803               	skipnc
  5588     028A  3E01               	addlw	1
  5589     028B  1903               	skipnz
  5590     028C  2A8E               	goto	u313_22
  5591     028D  07B6               	addwf	___flmul@prod+2,f
  5592     028E                     u313_22:
  5593     028E  082B               	movf	??___flmul+3,w
  5594     028F  1103               	clrz
  5595     0290  1803               	skipnc
  5596     0291  3E01               	addlw	1
  5597     0292  1903               	skipnz
  5598     0293  2A95               	goto	u313_23
  5599     0294  07B7               	addwf	___flmul@prod+3,f
  5600     0295                     u313_23:
  5601     0295                     i1l2652:
  5602     0295  082E               	movf	___flmul@grs,w
  5603     0296  00A8               	movwf	??___flmul
  5604     0297  082F               	movf	___flmul@grs+1,w
  5605     0298  00A9               	movwf	??___flmul+1
  5606     0299  0830               	movf	___flmul@grs+2,w
  5607     029A  00AA               	movwf	??___flmul+2
  5608     029B  0831               	movf	___flmul@grs+3,w
  5609     029C  00AB               	movwf	??___flmul+3
  5610     029D  3018               	movlw	24
  5611     029E                     u314_25:
  5612     029E  1003               	clrc
  5613     029F  0CAB               	rrf	??___flmul+3,f
  5614     02A0  0CAA               	rrf	??___flmul+2,f
  5615     02A1  0CA9               	rrf	??___flmul+1,f
  5616     02A2  0CA8               	rrf	??___flmul,f
  5617     02A3                     u314_20:
  5618     02A3  3EFF               	addlw	-1
  5619     02A4  1D03               	skipz
  5620     02A5  2A9E               	goto	u314_25
  5621     02A6  0828               	movf	??___flmul,w
  5622     02A7  07B4               	addwf	___flmul@prod,f
  5623     02A8  0829               	movf	??___flmul+1,w
  5624     02A9  1103               	clrz
  5625     02AA  1803               	skipnc
  5626     02AB  3E01               	addlw	1
  5627     02AC  1903               	skipnz
  5628     02AD  2AAF               	goto	u315_21
  5629     02AE  07B5               	addwf	___flmul@prod+1,f
  5630     02AF                     u315_21:
  5631     02AF  082A               	movf	??___flmul+2,w
  5632     02B0  1103               	clrz
  5633     02B1  1803               	skipnc
  5634     02B2  3E01               	addlw	1
  5635     02B3  1903               	skipnz
  5636     02B4  2AB6               	goto	u315_22
  5637     02B5  07B6               	addwf	___flmul@prod+2,f
  5638     02B6                     u315_22:
  5639     02B6  082B               	movf	??___flmul+3,w
  5640     02B7  1103               	clrz
  5641     02B8  1803               	skipnc
  5642     02B9  3E01               	addlw	1
  5643     02BA  1903               	skipnz
  5644     02BB  2ABD               	goto	u315_23
  5645     02BC  07B7               	addwf	___flmul@prod+3,f
  5646     02BD                     u315_23:
  5647     02BD                     i1l2654:
  5648     02BD  3008               	movlw	8
  5649     02BE  00A8               	movwf	??___flmul
  5650     02BF                     u316_25:
  5651     02BF  1003               	clrc
  5652     02C0  0DAE               	rlf	___flmul@grs,f
  5653     02C1  0DAF               	rlf	___flmul@grs+1,f
  5654     02C2  0DB0               	rlf	___flmul@grs+2,f
  5655     02C3  0DB1               	rlf	___flmul@grs+3,f
  5656     02C4  0BA8               	decfsz	??___flmul,f
  5657     02C5  2ABF               	goto	u316_25
  5658     02C6                     i1l2656:
  5659     02C6  0833               	movf	___flmul@bexp,w
  5660     02C7  0732               	addwf	___flmul@aexp,w
  5661     02C8  00A8               	movwf	??___flmul
  5662     02C9  01A9               	clrf	??___flmul+1
  5663     02CA  0DA9               	rlf	??___flmul+1,f
  5664     02CB  0828               	movf	??___flmul,w
  5665     02CC  3E82               	addlw	130
  5666     02CD  00B8               	movwf	___flmul@temp
  5667     02CE  0829               	movf	??___flmul+1,w
  5668     02CF  1803               	skipnc
  5669     02D0  3E01               	addlw	1
  5670     02D1  3EFF               	addlw	255
  5671     02D2  00B9               	movwf	___flmul@temp+1
  5672     02D3  2AF1               	goto	i1l2668
  5673     02D4                     i1l2658:
  5674     02D4  3001               	movlw	1
  5675     02D5  00A8               	movwf	??___flmul
  5676     02D6                     u317_25:
  5677     02D6  1003               	clrc
  5678     02D7  0DB4               	rlf	___flmul@prod,f
  5679     02D8  0DB5               	rlf	___flmul@prod+1,f
  5680     02D9  0DB6               	rlf	___flmul@prod+2,f
  5681     02DA  0DB7               	rlf	___flmul@prod+3,f
  5682     02DB  0BA8               	decfsz	??___flmul,f
  5683     02DC  2AD6               	goto	u317_25
  5684     02DD                     i1l2660:
  5685     02DD  1FB1               	btfss	___flmul@grs+3,7
  5686     02DE  2AE0               	goto	u318_21
  5687     02DF  2AE1               	goto	u318_20
  5688     02E0                     u318_21:
  5689     02E0  2AE2               	goto	i1l2664
  5690     02E1                     u318_20:
  5691     02E1                     i1l2662:
  5692     02E1  1434               	bsf	___flmul@prod,0
  5693     02E2                     i1l2664:
  5694     02E2  3001               	movlw	1
  5695     02E3  00A8               	movwf	??___flmul
  5696     02E4                     u319_25:
  5697     02E4  1003               	clrc
  5698     02E5  0DAE               	rlf	___flmul@grs,f
  5699     02E6  0DAF               	rlf	___flmul@grs+1,f
  5700     02E7  0DB0               	rlf	___flmul@grs+2,f
  5701     02E8  0DB1               	rlf	___flmul@grs+3,f
  5702     02E9  0BA8               	decfsz	??___flmul,f
  5703     02EA  2AE4               	goto	u319_25
  5704     02EB                     i1l2666:
  5705     02EB  30FF               	movlw	255
  5706     02EC  07B8               	addwf	___flmul@temp,f
  5707     02ED  1803               	skipnc
  5708     02EE  0AB9               	incf	___flmul@temp+1,f
  5709     02EF  30FF               	movlw	255
  5710     02F0  07B9               	addwf	___flmul@temp+1,f
  5711     02F1                     i1l2668:
  5712     02F1  1FB6               	btfss	___flmul@prod+2,7
  5713     02F2  2AF4               	goto	u320_21
  5714     02F3  2AF5               	goto	u320_20
  5715     02F4                     u320_21:
  5716     02F4  2AD4               	goto	i1l2658
  5717     02F5                     u320_20:
  5718     02F5                     i1l2670:
  5719     02F5  01B2               	clrf	___flmul@aexp
  5720     02F6                     i1l2672:
  5721     02F6  1FB1               	btfss	___flmul@grs+3,7
  5722     02F7  2AF9               	goto	u321_21
  5723     02F8  2AFA               	goto	u321_20
  5724     02F9                     u321_21:
  5725     02F9  2B16               	goto	i1l2680
  5726     02FA                     u321_20:
  5727     02FA                     i1l2674:
  5728     02FA  30FF               	movlw	255
  5729     02FB  052E               	andwf	___flmul@grs,w
  5730     02FC  00A8               	movwf	??___flmul
  5731     02FD  30FF               	movlw	255
  5732     02FE  052F               	andwf	___flmul@grs+1,w
  5733     02FF  00A9               	movwf	??___flmul+1
  5734     0300  30FF               	movlw	255
  5735     0301  0530               	andwf	___flmul@grs+2,w
  5736     0302  00AA               	movwf	??___flmul+2
  5737     0303  307F               	movlw	127
  5738     0304  0531               	andwf	___flmul@grs+3,w
  5739     0305  00AB               	movwf	??___flmul+3
  5740     0306  082B               	movf	??___flmul+3,w
  5741     0307  042A               	iorwf	??___flmul+2,w
  5742     0308  0429               	iorwf	??___flmul+1,w
  5743     0309  0428               	iorwf	??___flmul,w
  5744     030A  1903               	skipnz
  5745     030B  2B0D               	goto	u322_21
  5746     030C  2B0E               	goto	u322_20
  5747     030D                     u322_21:
  5748     030D  2B11               	goto	i1l873
  5749     030E                     u322_20:
  5750     030E                     i1l2676:
  5751     030E  01B2               	clrf	___flmul@aexp
  5752     030F  0AB2               	incf	___flmul@aexp,f
  5753     0310  2B16               	goto	i1l2680
  5754     0311                     i1l873:
  5755     0311  1C34               	btfss	___flmul@prod,0
  5756     0312  2B14               	goto	u323_21
  5757     0313  2B15               	goto	u323_20
  5758     0314                     u323_21:
  5759     0314  2B16               	goto	i1l2680
  5760     0315                     u323_20:
  5761     0315  2B0E               	goto	i1l2676
  5762     0316                     i1l2680:
  5763     0316  0832               	movf	___flmul@aexp,w
  5764     0317  1903               	btfsc	3,2
  5765     0318  2B1A               	goto	u324_21
  5766     0319  2B1B               	goto	u324_20
  5767     031A                     u324_21:
  5768     031A  2B4C               	goto	i1l2690
  5769     031B                     u324_20:
  5770     031B                     i1l2682:
  5771     031B  3001               	movlw	1
  5772     031C  07B4               	addwf	___flmul@prod,f
  5773     031D  3000               	movlw	0
  5774     031E  1803               	skipnc
  5775     031F  3001               	movlw	1
  5776     0320  07B5               	addwf	___flmul@prod+1,f
  5777     0321  3000               	movlw	0
  5778     0322  1803               	skipnc
  5779     0323  3001               	movlw	1
  5780     0324  07B6               	addwf	___flmul@prod+2,f
  5781     0325  3000               	movlw	0
  5782     0326  1803               	skipnc
  5783     0327  3001               	movlw	1
  5784     0328  07B7               	addwf	___flmul@prod+3,f
  5785     0329                     i1l2684:
  5786     0329  1C37               	btfss	___flmul@prod+3,0
  5787     032A  2B2C               	goto	u325_21
  5788     032B  2B2D               	goto	u325_20
  5789     032C                     u325_21:
  5790     032C  2B4C               	goto	i1l2690
  5791     032D                     u325_20:
  5792     032D                     i1l2686:
  5793     032D  0834               	movf	___flmul@prod,w
  5794     032E  00A8               	movwf	??___flmul
  5795     032F  0835               	movf	___flmul@prod+1,w
  5796     0330  00A9               	movwf	??___flmul+1
  5797     0331  0836               	movf	___flmul@prod+2,w
  5798     0332  00AA               	movwf	??___flmul+2
  5799     0333  0837               	movf	___flmul@prod+3,w
  5800     0334  00AB               	movwf	??___flmul+3
  5801     0335  3001               	movlw	1
  5802     0336  00AC               	movwf	??___flmul+4
  5803     0337                     u326_25:
  5804     0337  0D2B               	rlf	??___flmul+3,w
  5805     0338  0CAB               	rrf	??___flmul+3,f
  5806     0339  0CAA               	rrf	??___flmul+2,f
  5807     033A  0CA9               	rrf	??___flmul+1,f
  5808     033B  0CA8               	rrf	??___flmul,f
  5809     033C                     u326_20:
  5810     033C  0BAC               	decfsz	??___flmul+4,f
  5811     033D  2B37               	goto	u326_25
  5812     033E  082B               	movf	??___flmul+3,w
  5813     033F  00B7               	movwf	___flmul@prod+3
  5814     0340  082A               	movf	??___flmul+2,w
  5815     0341  00B6               	movwf	___flmul@prod+2
  5816     0342  0829               	movf	??___flmul+1,w
  5817     0343  00B5               	movwf	___flmul@prod+1
  5818     0344  0828               	movf	??___flmul,w
  5819     0345  00B4               	movwf	___flmul@prod
  5820     0346                     i1l2688:
  5821     0346  3001               	movlw	1
  5822     0347  07B8               	addwf	___flmul@temp,f
  5823     0348  1803               	skipnc
  5824     0349  0AB9               	incf	___flmul@temp+1,f
  5825     034A  3000               	movlw	0
  5826     034B  07B9               	addwf	___flmul@temp+1,f
  5827     034C                     i1l2690:
  5828     034C  0839               	movf	___flmul@temp+1,w
  5829     034D  3A80               	xorlw	128
  5830     034E  00FF               	movwf	btemp+1
  5831     034F  3080               	movlw	128
  5832     0350  027F               	subwf	btemp+1,w
  5833     0351  1D03               	skipz
  5834     0352  2B55               	goto	u327_25
  5835     0353  30FF               	movlw	255
  5836     0354  0238               	subwf	___flmul@temp,w
  5837     0355                     u327_25:
  5838     0355  1C03               	skipc
  5839     0356  2B58               	goto	u327_21
  5840     0357  2B59               	goto	u327_20
  5841     0358                     u327_21:
  5842     0358  2B64               	goto	i1l2694
  5843     0359                     u327_20:
  5844     0359                     i1l2692:
  5845     0359  307F               	movlw	127
  5846     035A  1283               	bcf	3,5	;RP0=0, select bank0
  5847     035B  1303               	bcf	3,6	;RP1=0, select bank0
  5848     035C  00B7               	movwf	___flmul@prod+3
  5849     035D  3080               	movlw	128
  5850     035E  00B6               	movwf	___flmul@prod+2
  5851     035F  3000               	movlw	0
  5852     0360  00B5               	movwf	___flmul@prod+1
  5853     0361  3000               	movlw	0
  5854     0362  00B4               	movwf	___flmul@prod
  5855     0363  2B95               	goto	i1l2708
  5856     0364                     i1l2694:
  5857     0364  1283               	bcf	3,5	;RP0=0, select bank0
  5858     0365  1303               	bcf	3,6	;RP1=0, select bank0
  5859     0366  0839               	movf	___flmul@temp+1,w
  5860     0367  3A80               	xorlw	128
  5861     0368  00FF               	movwf	btemp+1
  5862     0369  3080               	movlw	128
  5863     036A  027F               	subwf	btemp+1,w
  5864     036B  1D03               	skipz
  5865     036C  2B6F               	goto	u328_25
  5866     036D  3001               	movlw	1
  5867     036E  0238               	subwf	___flmul@temp,w
  5868     036F                     u328_25:
  5869     036F  1803               	skipnc
  5870     0370  2B72               	goto	u328_21
  5871     0371  2B73               	goto	u328_20
  5872     0372                     u328_21:
  5873     0372  2B7F               	goto	i1l2700
  5874     0373                     u328_20:
  5875     0373                     i1l2696:
  5876     0373  3000               	movlw	0
  5877     0374  1283               	bcf	3,5	;RP0=0, select bank0
  5878     0375  1303               	bcf	3,6	;RP1=0, select bank0
  5879     0376  00B7               	movwf	___flmul@prod+3
  5880     0377  3000               	movlw	0
  5881     0378  00B6               	movwf	___flmul@prod+2
  5882     0379  3000               	movlw	0
  5883     037A  00B5               	movwf	___flmul@prod+1
  5884     037B  3000               	movlw	0
  5885     037C  00B4               	movwf	___flmul@prod
  5886     037D                     i1l2698:
  5887     037D  01AD               	clrf	___flmul@sign
  5888     037E  2B95               	goto	i1l2708
  5889     037F                     i1l2700:
  5890     037F  1283               	bcf	3,5	;RP0=0, select bank0
  5891     0380  1303               	bcf	3,6	;RP1=0, select bank0
  5892     0381  0838               	movf	___flmul@temp,w
  5893     0382  00B3               	movwf	___flmul@bexp
  5894     0383  30FF               	movlw	255
  5895     0384  05B4               	andwf	___flmul@prod,f
  5896     0385  30FF               	movlw	255
  5897     0386  05B5               	andwf	___flmul@prod+1,f
  5898     0387  307F               	movlw	127
  5899     0388  05B6               	andwf	___flmul@prod+2,f
  5900     0389  3000               	movlw	0
  5901     038A  05B7               	andwf	___flmul@prod+3,f
  5902     038B                     i1l2702:
  5903     038B  1C33               	btfss	___flmul@bexp,0
  5904     038C  2B8E               	goto	u329_21
  5905     038D  2B8F               	goto	u329_20
  5906     038E                     u329_21:
  5907     038E  2B90               	goto	i1l2706
  5908     038F                     u329_20:
  5909     038F                     i1l2704:
  5910     038F  17B6               	bsf	___flmul@prod+2,7
  5911     0390                     i1l2706:
  5912     0390  0833               	movf	___flmul@bexp,w
  5913     0391  00A8               	movwf	??___flmul
  5914     0392  1003               	clrc
  5915     0393  0C28               	rrf	??___flmul,w
  5916     0394  00B7               	movwf	___flmul@prod+3
  5917     0395                     i1l2708:
  5918     0395  082D               	movf	___flmul@sign,w
  5919     0396  00FF               	movwf	btemp+1
  5920     0397  087F               	movf	btemp+1,w
  5921     0398  04B7               	iorwf	___flmul@prod+3,f
  5922     0399                     i1l2710:
  5923     0399  0837               	movf	___flmul@prod+3,w
  5924     039A  00A3               	movwf	?___flmul+3
  5925     039B  0836               	movf	___flmul@prod+2,w
  5926     039C  00A2               	movwf	?___flmul+2
  5927     039D  0835               	movf	___flmul@prod+1,w
  5928     039E  00A1               	movwf	?___flmul+1
  5929     039F  0834               	movf	___flmul@prod,w
  5930     03A0  00A0               	movwf	?___flmul
  5931     03A1                     i1l867:
  5932     03A1  0008               	return
  5933     03A2                     __end_of___flmul:
  5934                           
  5935                           	psect	text26
  5936     0862                     __ptext26:	
  5937 ;; *************** function __Umul8_16 *****************
  5938 ;; Defined at:
  5939 ;;		line 4 in file "C:\Program Files\Microchip\xc8\v2.45\pic\sources\c99\common\Umul8_16.c"
  5940 ;; Parameters:    Size  Location     Type
  5941 ;;  multiplier      1    wreg     unsigned char 
  5942 ;;  multiplicand    1    0[COMMON] unsigned char 
  5943 ;; Auto vars:     Size  Location     Type
  5944 ;;  multiplier      1    8[COMMON] unsigned char 
  5945 ;;  word_mpld       2    6[COMMON] unsigned short 
  5946 ;;  product         2    4[COMMON] unsigned short 
  5947 ;; Return value:  Size  Location     Type
  5948 ;;                  2    0[COMMON] unsigned int 
  5949 ;; Registers used:
  5950 ;;		wreg, status,2, status,0
  5951 ;; Tracked objects:
  5952 ;;		On entry : 0/0
  5953 ;;		On exit  : 0/0
  5954 ;;		Unchanged: 0/0
  5955 ;; Data sizes:     COMMON   BANK0   BANK1   BANK3   BANK2
  5956 ;;      Params:         2       0       0       0       0
  5957 ;;      Locals:         5       0       0       0       0
  5958 ;;      Temps:          2       0       0       0       0
  5959 ;;      Totals:         9       0       0       0       0
  5960 ;;Total ram usage:        9 bytes
  5961 ;; Hardware stack levels used: 1
  5962 ;; This function calls:
  5963 ;;		Nothing
  5964 ;; This function is called by:
  5965 ;;		___flmul
  5966 ;; This function uses a non-reentrant model
  5967 ;;
  5968                           
  5969     0862                     __Umul8_16:	
  5970                           ;psect for function __Umul8_16
  5971                           
  5972                           
  5973                           ;incstack = 0
  5974                           ; Regs used in __Umul8_16: [wreg+status,2+status,0]
  5975                           ;__Umul8_16@multiplier stored from wreg
  5976     0862  00F8               	movwf	__Umul8_16@multiplier
  5977     0863                     i1l2144:
  5978     0863  01F4               	clrf	__Umul8_16@product
  5979     0864  01F5               	clrf	__Umul8_16@product+1
  5980     0865                     i1l2146:
  5981     0865  0870               	movf	__Umul8_16@multiplicand,w
  5982     0866  00F2               	movwf	??__Umul8_16
  5983     0867  01F3               	clrf	??__Umul8_16+1
  5984     0868  0872               	movf	??__Umul8_16,w
  5985     0869  00F6               	movwf	__Umul8_16@word_mpld
  5986     086A  0873               	movf	??__Umul8_16+1,w
  5987     086B  00F7               	movwf	__Umul8_16@word_mpld+1
  5988     086C                     i1l2148:
  5989     086C  1C78               	btfss	__Umul8_16@multiplier,0
  5990     086D  286F               	goto	u207_21
  5991     086E  2870               	goto	u207_20
  5992     086F                     u207_21:
  5993     086F  2876               	goto	i1l886
  5994     0870                     u207_20:
  5995     0870                     i1l2150:
  5996     0870  0876               	movf	__Umul8_16@word_mpld,w
  5997     0871  07F4               	addwf	__Umul8_16@product,f
  5998     0872  1803               	skipnc
  5999     0873  0AF5               	incf	__Umul8_16@product+1,f
  6000     0874  0877               	movf	__Umul8_16@word_mpld+1,w
  6001     0875  07F5               	addwf	__Umul8_16@product+1,f
  6002     0876                     i1l886:
  6003     0876  3001               	movlw	1
  6004     0877                     u208_25:
  6005     0877  1003               	clrc
  6006     0878  0DF6               	rlf	__Umul8_16@word_mpld,f
  6007     0879  0DF7               	rlf	__Umul8_16@word_mpld+1,f
  6008     087A  3EFF               	addlw	-1
  6009     087B  1D03               	skipz
  6010     087C  2877               	goto	u208_25
  6011     087D  1003               	clrc
  6012     087E  0CF8               	rrf	__Umul8_16@multiplier,f
  6013     087F                     i1l2152:
  6014     087F  0878               	movf	__Umul8_16@multiplier,w
  6015     0880  1D03               	btfss	3,2
  6016     0881  2883               	goto	u209_21
  6017     0882  2884               	goto	u209_20
  6018     0883                     u209_21:
  6019     0883  286C               	goto	i1l2148
  6020     0884                     u209_20:
  6021     0884                     i1l2154:
  6022     0884  0875               	movf	__Umul8_16@product+1,w
  6023     0885  00F1               	movwf	?__Umul8_16+1
  6024     0886  0874               	movf	__Umul8_16@product,w
  6025     0887  00F0               	movwf	?__Umul8_16
  6026     0888                     i1l888:
  6027     0888  0008               	return
  6028     0889                     __end_of__Umul8_16:
  6029                           
  6030                           	psect	text27
  6031     0E31                     __ptext27:	
  6032 ;; *************** function ___fldiv *****************
  6033 ;; Defined at:
  6034 ;;		line 8 in file "C:\Program Files\Microchip\xc8\v2.45\pic\sources\c99\common\sprcdiv.c"
  6035 ;; Parameters:    Size  Location     Type
  6036 ;;  a               4   26[BANK0 ] unsigned int 
  6037 ;;  b               4   30[BANK0 ] unsigned int 
  6038 ;; Auto vars:     Size  Location     Type
  6039 ;;  grs             4   46[BANK0 ] unsigned long 
  6040 ;;  rem             4   39[BANK0 ] unsigned long 
  6041 ;;  new_exp         2   44[BANK0 ] short 
  6042 ;;  aexp            1   51[BANK0 ] unsigned char 
  6043 ;;  bexp            1   50[BANK0 ] unsigned char 
  6044 ;;  sign            1   43[BANK0 ] unsigned char 
  6045 ;; Return value:  Size  Location     Type
  6046 ;;                  4   26[BANK0 ] unsigned char 
  6047 ;; Registers used:
  6048 ;;		wreg, status,2, status,0, btemp+1
  6049 ;; Tracked objects:
  6050 ;;		On entry : 0/0
  6051 ;;		On exit  : 0/0
  6052 ;;		Unchanged: 0/0
  6053 ;; Data sizes:     COMMON   BANK0   BANK1   BANK3   BANK2
  6054 ;;      Params:         0       8       0       0       0
  6055 ;;      Locals:         0      13       0       0       0
  6056 ;;      Temps:          0       5       0       0       0
  6057 ;;      Totals:         0      26       0       0       0
  6058 ;;Total ram usage:       26 bytes
  6059 ;; Hardware stack levels used: 1
  6060 ;; This function calls:
  6061 ;;		Nothing
  6062 ;; This function is called by:
  6063 ;;		_ccp1_isr
  6064 ;; This function uses a non-reentrant model
  6065 ;;
  6066                           
  6067     0E31                     ___fldiv:	
  6068                           ;psect for function ___fldiv
  6069                           
  6070     0E31                     i1l2426:	
  6071                           ;incstack = 0
  6072                           ; Regs used in ___fldiv: [wreg+status,2+status,0+btemp+1]
  6073                           
  6074     0E31  1283               	bcf	3,5	;RP0=0, select bank0
  6075     0E32  1303               	bcf	3,6	;RP1=0, select bank0
  6076     0E33  0841               	movf	___fldiv@b+3,w
  6077     0E34  3980               	andlw	128
  6078     0E35  00CB               	movwf	___fldiv@sign
  6079     0E36                     i1l2428:
  6080     0E36  0841               	movf	___fldiv@b+3,w
  6081     0E37  00C2               	movwf	??___fldiv
  6082     0E38  0742               	addwf	??___fldiv,w
  6083     0E39  00D2               	movwf	___fldiv@bexp
  6084     0E3A                     i1l2430:
  6085     0E3A  1FC0               	btfss	___fldiv@b+2,7
  6086     0E3B  2E3D               	goto	u264_21
  6087     0E3C  2E3E               	goto	u264_20
  6088     0E3D                     u264_21:
  6089     0E3D  2E3F               	goto	i1l2434
  6090     0E3E                     u264_20:
  6091     0E3E                     i1l2432:
  6092     0E3E  1452               	bsf	___fldiv@bexp,0
  6093     0E3F                     i1l2434:
  6094     0E3F  0852               	movf	___fldiv@bexp,w
  6095     0E40  1903               	btfsc	3,2
  6096     0E41  2E43               	goto	u265_21
  6097     0E42  2E44               	goto	u265_20
  6098     0E43                     u265_21:
  6099     0E43  2E54               	goto	i1l2444
  6100     0E44                     u265_20:
  6101     0E44                     i1l2436:
  6102     0E44  0A52               	incf	___fldiv@bexp,w
  6103     0E45  1D03               	btfss	3,2
  6104     0E46  2E48               	goto	u266_21
  6105     0E47  2E49               	goto	u266_20
  6106     0E48                     u266_21:
  6107     0E48  2E51               	goto	i1l2440
  6108     0E49                     u266_20:
  6109     0E49                     i1l2438:
  6110     0E49  3000               	movlw	0
  6111     0E4A  00C1               	movwf	___fldiv@b+3
  6112     0E4B  3000               	movlw	0
  6113     0E4C  00C0               	movwf	___fldiv@b+2
  6114     0E4D  3000               	movlw	0
  6115     0E4E  00BF               	movwf	___fldiv@b+1
  6116     0E4F  3000               	movlw	0
  6117     0E50  00BE               	movwf	___fldiv@b
  6118     0E51                     i1l2440:
  6119     0E51  17C0               	bsf	___fldiv@b+2,7
  6120     0E52                     i1l2442:
  6121     0E52  01C1               	clrf	___fldiv@b+3
  6122     0E53  2E5C               	goto	i1l2446
  6123     0E54                     i1l2444:
  6124     0E54  3000               	movlw	0
  6125     0E55  00C1               	movwf	___fldiv@b+3
  6126     0E56  3000               	movlw	0
  6127     0E57  00C0               	movwf	___fldiv@b+2
  6128     0E58  3000               	movlw	0
  6129     0E59  00BF               	movwf	___fldiv@b+1
  6130     0E5A  3000               	movlw	0
  6131     0E5B  00BE               	movwf	___fldiv@b
  6132     0E5C                     i1l2446:
  6133     0E5C  083D               	movf	___fldiv@a+3,w
  6134     0E5D  3980               	andlw	128
  6135     0E5E  00FF               	movwf	btemp+1
  6136     0E5F  087F               	movf	btemp+1,w
  6137     0E60  06CB               	xorwf	___fldiv@sign,f
  6138     0E61                     i1l2448:
  6139     0E61  083D               	movf	___fldiv@a+3,w
  6140     0E62  00C2               	movwf	??___fldiv
  6141     0E63  0742               	addwf	??___fldiv,w
  6142     0E64  00D3               	movwf	___fldiv@aexp
  6143     0E65                     i1l2450:
  6144     0E65  1FBC               	btfss	___fldiv@a+2,7
  6145     0E66  2E68               	goto	u267_21
  6146     0E67  2E69               	goto	u267_20
  6147     0E68                     u267_21:
  6148     0E68  2E6A               	goto	i1l2454
  6149     0E69                     u267_20:
  6150     0E69                     i1l2452:
  6151     0E69  1453               	bsf	___fldiv@aexp,0
  6152     0E6A                     i1l2454:
  6153     0E6A  0853               	movf	___fldiv@aexp,w
  6154     0E6B  1903               	btfsc	3,2
  6155     0E6C  2E6E               	goto	u268_21
  6156     0E6D  2E6F               	goto	u268_20
  6157     0E6E                     u268_21:
  6158     0E6E  2E7F               	goto	i1l2464
  6159     0E6F                     u268_20:
  6160     0E6F                     i1l2456:
  6161     0E6F  0A53               	incf	___fldiv@aexp,w
  6162     0E70  1D03               	btfss	3,2
  6163     0E71  2E73               	goto	u269_21
  6164     0E72  2E74               	goto	u269_20
  6165     0E73                     u269_21:
  6166     0E73  2E7C               	goto	i1l2460
  6167     0E74                     u269_20:
  6168     0E74                     i1l2458:
  6169     0E74  3000               	movlw	0
  6170     0E75  00BD               	movwf	___fldiv@a+3
  6171     0E76  3000               	movlw	0
  6172     0E77  00BC               	movwf	___fldiv@a+2
  6173     0E78  3000               	movlw	0
  6174     0E79  00BB               	movwf	___fldiv@a+1
  6175     0E7A  3000               	movlw	0
  6176     0E7B  00BA               	movwf	___fldiv@a
  6177     0E7C                     i1l2460:
  6178     0E7C  17BC               	bsf	___fldiv@a+2,7
  6179     0E7D                     i1l2462:
  6180     0E7D  01BD               	clrf	___fldiv@a+3
  6181     0E7E  2E87               	goto	i1l827
  6182     0E7F                     i1l2464:
  6183     0E7F  3000               	movlw	0
  6184     0E80  00BD               	movwf	___fldiv@a+3
  6185     0E81  3000               	movlw	0
  6186     0E82  00BC               	movwf	___fldiv@a+2
  6187     0E83  3000               	movlw	0
  6188     0E84  00BB               	movwf	___fldiv@a+1
  6189     0E85  3000               	movlw	0
  6190     0E86  00BA               	movwf	___fldiv@a
  6191     0E87                     i1l827:
  6192     0E87  083D               	movf	___fldiv@a+3,w
  6193     0E88  043C               	iorwf	___fldiv@a+2,w
  6194     0E89  043B               	iorwf	___fldiv@a+1,w
  6195     0E8A  043A               	iorwf	___fldiv@a,w
  6196     0E8B  1D03               	skipz
  6197     0E8C  2E8E               	goto	u270_21
  6198     0E8D  2E8F               	goto	u270_20
  6199     0E8E                     u270_21:
  6200     0E8E  2EA8               	goto	i1l2474
  6201     0E8F                     u270_20:
  6202     0E8F                     i1l2466:
  6203     0E8F  3000               	movlw	0
  6204     0E90  00C1               	movwf	___fldiv@b+3
  6205     0E91  3000               	movlw	0
  6206     0E92  00C0               	movwf	___fldiv@b+2
  6207     0E93  3000               	movlw	0
  6208     0E94  00BF               	movwf	___fldiv@b+1
  6209     0E95  3000               	movlw	0
  6210     0E96  00BE               	movwf	___fldiv@b
  6211     0E97  3080               	movlw	128
  6212     0E98  04C0               	iorwf	___fldiv@b+2,f
  6213     0E99  307F               	movlw	127
  6214     0E9A  04C1               	iorwf	___fldiv@b+3,f
  6215     0E9B                     i1l2468:
  6216     0E9B  084B               	movf	___fldiv@sign,w
  6217     0E9C  00FF               	movwf	btemp+1
  6218     0E9D  087F               	movf	btemp+1,w
  6219     0E9E  04C1               	iorwf	___fldiv@b+3,f
  6220     0E9F                     i1l2470:
  6221     0E9F  0841               	movf	___fldiv@b+3,w
  6222     0EA0  00BD               	movwf	?___fldiv+3
  6223     0EA1  0840               	movf	___fldiv@b+2,w
  6224     0EA2  00BC               	movwf	?___fldiv+2
  6225     0EA3  083F               	movf	___fldiv@b+1,w
  6226     0EA4  00BB               	movwf	?___fldiv+1
  6227     0EA5  083E               	movf	___fldiv@b,w
  6228     0EA6  00BA               	movwf	?___fldiv
  6229     0EA7  2FFF               	goto	i1l829
  6230     0EA8                     i1l2474:
  6231     0EA8  0852               	movf	___fldiv@bexp,w
  6232     0EA9  1D03               	btfss	3,2
  6233     0EAA  2EAC               	goto	u271_21
  6234     0EAB  2EAD               	goto	u271_20
  6235     0EAC                     u271_21:
  6236     0EAC  2EB6               	goto	i1l2480
  6237     0EAD                     u271_20:
  6238     0EAD                     i1l2476:
  6239     0EAD  3000               	movlw	0
  6240     0EAE  00BD               	movwf	?___fldiv+3
  6241     0EAF  3000               	movlw	0
  6242     0EB0  00BC               	movwf	?___fldiv+2
  6243     0EB1  3000               	movlw	0
  6244     0EB2  00BB               	movwf	?___fldiv+1
  6245     0EB3  3000               	movlw	0
  6246     0EB4  00BA               	movwf	?___fldiv
  6247     0EB5  2FFF               	goto	i1l829
  6248     0EB6                     i1l2480:
  6249     0EB6  0852               	movf	___fldiv@bexp,w
  6250     0EB7  00C2               	movwf	??___fldiv
  6251     0EB8  01C3               	clrf	??___fldiv+1
  6252     0EB9  0843               	movf	??___fldiv+1,w
  6253     0EBA  00C5               	movwf	??___fldiv+3
  6254     0EBB  0853               	movf	___fldiv@aexp,w
  6255     0EBC  0242               	subwf	??___fldiv,w
  6256     0EBD  00C4               	movwf	??___fldiv+2
  6257     0EBE  1C03               	skipc
  6258     0EBF  03C5               	decf	??___fldiv+3,f
  6259     0EC0  0844               	movf	??___fldiv+2,w
  6260     0EC1  3E7F               	addlw	127
  6261     0EC2  00CC               	movwf	___fldiv@new_exp
  6262     0EC3  0845               	movf	??___fldiv+3,w
  6263     0EC4  1803               	skipnc
  6264     0EC5  3E01               	addlw	1
  6265     0EC6  3E00               	addlw	0
  6266     0EC7  00CD               	movwf	___fldiv@new_exp+1
  6267     0EC8                     i1l2482:
  6268     0EC8  0841               	movf	___fldiv@b+3,w
  6269     0EC9  00CA               	movwf	___fldiv@rem+3
  6270     0ECA  0840               	movf	___fldiv@b+2,w
  6271     0ECB  00C9               	movwf	___fldiv@rem+2
  6272     0ECC  083F               	movf	___fldiv@b+1,w
  6273     0ECD  00C8               	movwf	___fldiv@rem+1
  6274     0ECE  083E               	movf	___fldiv@b,w
  6275     0ECF  00C7               	movwf	___fldiv@rem
  6276     0ED0                     i1l2484:
  6277     0ED0  3000               	movlw	0
  6278     0ED1  00C1               	movwf	___fldiv@b+3
  6279     0ED2  3000               	movlw	0
  6280     0ED3  00C0               	movwf	___fldiv@b+2
  6281     0ED4  3000               	movlw	0
  6282     0ED5  00BF               	movwf	___fldiv@b+1
  6283     0ED6  3000               	movlw	0
  6284     0ED7  00BE               	movwf	___fldiv@b
  6285     0ED8                     i1l2486:
  6286     0ED8  3000               	movlw	0
  6287     0ED9  00D1               	movwf	___fldiv@grs+3
  6288     0EDA  3000               	movlw	0
  6289     0EDB  00D0               	movwf	___fldiv@grs+2
  6290     0EDC  3000               	movlw	0
  6291     0EDD  00CF               	movwf	___fldiv@grs+1
  6292     0EDE  3000               	movlw	0
  6293     0EDF  00CE               	movwf	___fldiv@grs
  6294     0EE0                     i1l2488:
  6295     0EE0  01D3               	clrf	___fldiv@aexp
  6296     0EE1  2F2C               	goto	i1l2508
  6297     0EE2                     i1l2490:
  6298     0EE2  0853               	movf	___fldiv@aexp,w
  6299     0EE3  1903               	btfsc	3,2
  6300     0EE4  2EE6               	goto	u272_21
  6301     0EE5  2EE7               	goto	u272_20
  6302     0EE6                     u272_21:
  6303     0EE6  2F07               	goto	i1l2500
  6304     0EE7                     u272_20:
  6305     0EE7                     i1l2492:
  6306     0EE7  3001               	movlw	1
  6307     0EE8  00C2               	movwf	??___fldiv
  6308     0EE9                     u273_25:
  6309     0EE9  1003               	clrc
  6310     0EEA  0DC7               	rlf	___fldiv@rem,f
  6311     0EEB  0DC8               	rlf	___fldiv@rem+1,f
  6312     0EEC  0DC9               	rlf	___fldiv@rem+2,f
  6313     0EED  0DCA               	rlf	___fldiv@rem+3,f
  6314     0EEE  0BC2               	decfsz	??___fldiv,f
  6315     0EEF  2EE9               	goto	u273_25
  6316     0EF0  3001               	movlw	1
  6317     0EF1  00C2               	movwf	??___fldiv
  6318     0EF2                     u274_25:
  6319     0EF2  1003               	clrc
  6320     0EF3  0DBE               	rlf	___fldiv@b,f
  6321     0EF4  0DBF               	rlf	___fldiv@b+1,f
  6322     0EF5  0DC0               	rlf	___fldiv@b+2,f
  6323     0EF6  0DC1               	rlf	___fldiv@b+3,f
  6324     0EF7  0BC2               	decfsz	??___fldiv,f
  6325     0EF8  2EF2               	goto	u274_25
  6326     0EF9                     i1l2494:
  6327     0EF9  1FD1               	btfss	___fldiv@grs+3,7
  6328     0EFA  2EFC               	goto	u275_21
  6329     0EFB  2EFD               	goto	u275_20
  6330     0EFC                     u275_21:
  6331     0EFC  2EFE               	goto	i1l2498
  6332     0EFD                     u275_20:
  6333     0EFD                     i1l2496:
  6334     0EFD  143E               	bsf	___fldiv@b,0
  6335     0EFE                     i1l2498:
  6336     0EFE  3001               	movlw	1
  6337     0EFF  00C2               	movwf	??___fldiv
  6338     0F00                     u276_25:
  6339     0F00  1003               	clrc
  6340     0F01  0DCE               	rlf	___fldiv@grs,f
  6341     0F02  0DCF               	rlf	___fldiv@grs+1,f
  6342     0F03  0DD0               	rlf	___fldiv@grs+2,f
  6343     0F04  0DD1               	rlf	___fldiv@grs+3,f
  6344     0F05  0BC2               	decfsz	??___fldiv,f
  6345     0F06  2F00               	goto	u276_25
  6346     0F07                     i1l2500:
  6347     0F07  083D               	movf	___fldiv@a+3,w
  6348     0F08  024A               	subwf	___fldiv@rem+3,w
  6349     0F09  1D03               	skipz
  6350     0F0A  2F15               	goto	u277_25
  6351     0F0B  083C               	movf	___fldiv@a+2,w
  6352     0F0C  0249               	subwf	___fldiv@rem+2,w
  6353     0F0D  1D03               	skipz
  6354     0F0E  2F15               	goto	u277_25
  6355     0F0F  083B               	movf	___fldiv@a+1,w
  6356     0F10  0248               	subwf	___fldiv@rem+1,w
  6357     0F11  1D03               	skipz
  6358     0F12  2F15               	goto	u277_25
  6359     0F13  083A               	movf	___fldiv@a,w
  6360     0F14  0247               	subwf	___fldiv@rem,w
  6361     0F15                     u277_25:
  6362     0F15  1C03               	skipc
  6363     0F16  2F18               	goto	u277_21
  6364     0F17  2F19               	goto	u277_20
  6365     0F18                     u277_21:
  6366     0F18  2F28               	goto	i1l2506
  6367     0F19                     u277_20:
  6368     0F19                     i1l2502:
  6369     0F19  1751               	bsf	___fldiv@grs+3,6
  6370     0F1A                     i1l2504:
  6371     0F1A  083A               	movf	___fldiv@a,w
  6372     0F1B  02C7               	subwf	___fldiv@rem,f
  6373     0F1C  083B               	movf	___fldiv@a+1,w
  6374     0F1D  1C03               	skipc
  6375     0F1E  0F3B               	incfsz	___fldiv@a+1,w
  6376     0F1F  02C8               	subwf	___fldiv@rem+1,f
  6377     0F20  083C               	movf	___fldiv@a+2,w
  6378     0F21  1C03               	skipc
  6379     0F22  0F3C               	incfsz	___fldiv@a+2,w
  6380     0F23  02C9               	subwf	___fldiv@rem+2,f
  6381     0F24  083D               	movf	___fldiv@a+3,w
  6382     0F25  1C03               	skipc
  6383     0F26  0F3D               	incfsz	___fldiv@a+3,w
  6384     0F27  02CA               	subwf	___fldiv@rem+3,f
  6385     0F28                     i1l2506:
  6386     0F28  3001               	movlw	1
  6387     0F29  00FF               	movwf	btemp+1
  6388     0F2A  087F               	movf	btemp+1,w
  6389     0F2B  07D3               	addwf	___fldiv@aexp,f
  6390     0F2C                     i1l2508:
  6391     0F2C  301A               	movlw	26
  6392     0F2D  0253               	subwf	___fldiv@aexp,w
  6393     0F2E  1C03               	skipc
  6394     0F2F  2F31               	goto	u278_21
  6395     0F30  2F32               	goto	u278_20
  6396     0F31                     u278_21:
  6397     0F31  2EE2               	goto	i1l2490
  6398     0F32                     u278_20:
  6399     0F32                     i1l2510:
  6400     0F32  084A               	movf	___fldiv@rem+3,w
  6401     0F33  0449               	iorwf	___fldiv@rem+2,w
  6402     0F34  0448               	iorwf	___fldiv@rem+1,w
  6403     0F35  0447               	iorwf	___fldiv@rem,w
  6404     0F36  1903               	skipnz
  6405     0F37  2F39               	goto	u279_21
  6406     0F38  2F3A               	goto	u279_20
  6407     0F39                     u279_21:
  6408     0F39  2F59               	goto	i1l2524
  6409     0F3A                     u279_20:
  6410     0F3A                     i1l2512:
  6411     0F3A  144E               	bsf	___fldiv@grs,0
  6412     0F3B  2F59               	goto	i1l2524
  6413     0F3C                     i1l2514:
  6414     0F3C  3001               	movlw	1
  6415     0F3D  00C2               	movwf	??___fldiv
  6416     0F3E                     u280_25:
  6417     0F3E  1003               	clrc
  6418     0F3F  0DBE               	rlf	___fldiv@b,f
  6419     0F40  0DBF               	rlf	___fldiv@b+1,f
  6420     0F41  0DC0               	rlf	___fldiv@b+2,f
  6421     0F42  0DC1               	rlf	___fldiv@b+3,f
  6422     0F43  0BC2               	decfsz	??___fldiv,f
  6423     0F44  2F3E               	goto	u280_25
  6424     0F45                     i1l2516:
  6425     0F45  1FD1               	btfss	___fldiv@grs+3,7
  6426     0F46  2F48               	goto	u281_21
  6427     0F47  2F49               	goto	u281_20
  6428     0F48                     u281_21:
  6429     0F48  2F4A               	goto	i1l2520
  6430     0F49                     u281_20:
  6431     0F49                     i1l2518:
  6432     0F49  143E               	bsf	___fldiv@b,0
  6433     0F4A                     i1l2520:
  6434     0F4A  3001               	movlw	1
  6435     0F4B  00C2               	movwf	??___fldiv
  6436     0F4C                     u282_25:
  6437     0F4C  1003               	clrc
  6438     0F4D  0DCE               	rlf	___fldiv@grs,f
  6439     0F4E  0DCF               	rlf	___fldiv@grs+1,f
  6440     0F4F  0DD0               	rlf	___fldiv@grs+2,f
  6441     0F50  0DD1               	rlf	___fldiv@grs+3,f
  6442     0F51  0BC2               	decfsz	??___fldiv,f
  6443     0F52  2F4C               	goto	u282_25
  6444     0F53                     i1l2522:
  6445     0F53  30FF               	movlw	255
  6446     0F54  07CC               	addwf	___fldiv@new_exp,f
  6447     0F55  1803               	skipnc
  6448     0F56  0ACD               	incf	___fldiv@new_exp+1,f
  6449     0F57  30FF               	movlw	255
  6450     0F58  07CD               	addwf	___fldiv@new_exp+1,f
  6451     0F59                     i1l2524:
  6452     0F59  1FC0               	btfss	___fldiv@b+2,7
  6453     0F5A  2F5C               	goto	u283_21
  6454     0F5B  2F5D               	goto	u283_20
  6455     0F5C                     u283_21:
  6456     0F5C  2F3C               	goto	i1l2514
  6457     0F5D                     u283_20:
  6458     0F5D                     i1l2526:
  6459     0F5D  01D3               	clrf	___fldiv@aexp
  6460     0F5E                     i1l2528:
  6461     0F5E  1FD1               	btfss	___fldiv@grs+3,7
  6462     0F5F  2F61               	goto	u284_21
  6463     0F60  2F62               	goto	u284_20
  6464     0F61                     u284_21:
  6465     0F61  2F7E               	goto	i1l2536
  6466     0F62                     u284_20:
  6467     0F62                     i1l2530:
  6468     0F62  30FF               	movlw	255
  6469     0F63  054E               	andwf	___fldiv@grs,w
  6470     0F64  00C2               	movwf	??___fldiv
  6471     0F65  30FF               	movlw	255
  6472     0F66  054F               	andwf	___fldiv@grs+1,w
  6473     0F67  00C3               	movwf	??___fldiv+1
  6474     0F68  30FF               	movlw	255
  6475     0F69  0550               	andwf	___fldiv@grs+2,w
  6476     0F6A  00C4               	movwf	??___fldiv+2
  6477     0F6B  307F               	movlw	127
  6478     0F6C  0551               	andwf	___fldiv@grs+3,w
  6479     0F6D  00C5               	movwf	??___fldiv+3
  6480     0F6E  0845               	movf	??___fldiv+3,w
  6481     0F6F  0444               	iorwf	??___fldiv+2,w
  6482     0F70  0443               	iorwf	??___fldiv+1,w
  6483     0F71  0442               	iorwf	??___fldiv,w
  6484     0F72  1903               	skipnz
  6485     0F73  2F75               	goto	u285_21
  6486     0F74  2F76               	goto	u285_20
  6487     0F75                     u285_21:
  6488     0F75  2F79               	goto	i1l843
  6489     0F76                     u285_20:
  6490     0F76                     i1l2532:
  6491     0F76  01D3               	clrf	___fldiv@aexp
  6492     0F77  0AD3               	incf	___fldiv@aexp,f
  6493     0F78  2F7E               	goto	i1l2536
  6494     0F79                     i1l843:
  6495     0F79  1C3E               	btfss	___fldiv@b,0
  6496     0F7A  2F7C               	goto	u286_21
  6497     0F7B  2F7D               	goto	u286_20
  6498     0F7C                     u286_21:
  6499     0F7C  2F7E               	goto	i1l2536
  6500     0F7D                     u286_20:
  6501     0F7D  2F76               	goto	i1l2532
  6502     0F7E                     i1l2536:
  6503     0F7E  0853               	movf	___fldiv@aexp,w
  6504     0F7F  1903               	btfsc	3,2
  6505     0F80  2F82               	goto	u287_21
  6506     0F81  2F83               	goto	u287_20
  6507     0F82                     u287_21:
  6508     0F82  2FB4               	goto	i1l2546
  6509     0F83                     u287_20:
  6510     0F83                     i1l2538:
  6511     0F83  3001               	movlw	1
  6512     0F84  07BE               	addwf	___fldiv@b,f
  6513     0F85  3000               	movlw	0
  6514     0F86  1803               	skipnc
  6515     0F87  3001               	movlw	1
  6516     0F88  07BF               	addwf	___fldiv@b+1,f
  6517     0F89  3000               	movlw	0
  6518     0F8A  1803               	skipnc
  6519     0F8B  3001               	movlw	1
  6520     0F8C  07C0               	addwf	___fldiv@b+2,f
  6521     0F8D  3000               	movlw	0
  6522     0F8E  1803               	skipnc
  6523     0F8F  3001               	movlw	1
  6524     0F90  07C1               	addwf	___fldiv@b+3,f
  6525     0F91                     i1l2540:
  6526     0F91  1C41               	btfss	___fldiv@b+3,0
  6527     0F92  2F94               	goto	u288_21
  6528     0F93  2F95               	goto	u288_20
  6529     0F94                     u288_21:
  6530     0F94  2FB4               	goto	i1l2546
  6531     0F95                     u288_20:
  6532     0F95                     i1l2542:
  6533     0F95  083E               	movf	___fldiv@b,w
  6534     0F96  00C2               	movwf	??___fldiv
  6535     0F97  083F               	movf	___fldiv@b+1,w
  6536     0F98  00C3               	movwf	??___fldiv+1
  6537     0F99  0840               	movf	___fldiv@b+2,w
  6538     0F9A  00C4               	movwf	??___fldiv+2
  6539     0F9B  0841               	movf	___fldiv@b+3,w
  6540     0F9C  00C5               	movwf	??___fldiv+3
  6541     0F9D  3001               	movlw	1
  6542     0F9E  00C6               	movwf	??___fldiv+4
  6543     0F9F                     u289_25:
  6544     0F9F  0D45               	rlf	??___fldiv+3,w
  6545     0FA0  0CC5               	rrf	??___fldiv+3,f
  6546     0FA1  0CC4               	rrf	??___fldiv+2,f
  6547     0FA2  0CC3               	rrf	??___fldiv+1,f
  6548     0FA3  0CC2               	rrf	??___fldiv,f
  6549     0FA4                     u289_20:
  6550     0FA4  0BC6               	decfsz	??___fldiv+4,f
  6551     0FA5  2F9F               	goto	u289_25
  6552     0FA6  0845               	movf	??___fldiv+3,w
  6553     0FA7  00C1               	movwf	___fldiv@b+3
  6554     0FA8  0844               	movf	??___fldiv+2,w
  6555     0FA9  00C0               	movwf	___fldiv@b+2
  6556     0FAA  0843               	movf	??___fldiv+1,w
  6557     0FAB  00BF               	movwf	___fldiv@b+1
  6558     0FAC  0842               	movf	??___fldiv,w
  6559     0FAD  00BE               	movwf	___fldiv@b
  6560     0FAE                     i1l2544:
  6561     0FAE  3001               	movlw	1
  6562     0FAF  07CC               	addwf	___fldiv@new_exp,f
  6563     0FB0  1803               	skipnc
  6564     0FB1  0ACD               	incf	___fldiv@new_exp+1,f
  6565     0FB2  3000               	movlw	0
  6566     0FB3  07CD               	addwf	___fldiv@new_exp+1,f
  6567     0FB4                     i1l2546:
  6568     0FB4  084D               	movf	___fldiv@new_exp+1,w
  6569     0FB5  3A80               	xorlw	128
  6570     0FB6  00FF               	movwf	btemp+1
  6571     0FB7  3080               	movlw	128
  6572     0FB8  027F               	subwf	btemp+1,w
  6573     0FB9  1D03               	skipz
  6574     0FBA  2FBD               	goto	u290_25
  6575     0FBB  30FF               	movlw	255
  6576     0FBC  024C               	subwf	___fldiv@new_exp,w
  6577     0FBD                     u290_25:
  6578     0FBD  1C03               	skipc
  6579     0FBE  2FC0               	goto	u290_21
  6580     0FBF  2FC1               	goto	u290_20
  6581     0FC0                     u290_21:
  6582     0FC0  2FCF               	goto	i1l2550
  6583     0FC1                     u290_20:
  6584     0FC1                     i1l2548:
  6585     0FC1  30FF               	movlw	255
  6586     0FC2  1283               	bcf	3,5	;RP0=0, select bank0
  6587     0FC3  1303               	bcf	3,6	;RP1=0, select bank0
  6588     0FC4  00CC               	movwf	___fldiv@new_exp
  6589     0FC5  3000               	movlw	0
  6590     0FC6  00CD               	movwf	___fldiv@new_exp+1
  6591     0FC7  3000               	movlw	0
  6592     0FC8  00C1               	movwf	___fldiv@b+3
  6593     0FC9  3000               	movlw	0
  6594     0FCA  00C0               	movwf	___fldiv@b+2
  6595     0FCB  3000               	movlw	0
  6596     0FCC  00BF               	movwf	___fldiv@b+1
  6597     0FCD  3000               	movlw	0
  6598     0FCE  00BE               	movwf	___fldiv@b
  6599     0FCF                     i1l2550:
  6600     0FCF  1283               	bcf	3,5	;RP0=0, select bank0
  6601     0FD0  1303               	bcf	3,6	;RP1=0, select bank0
  6602     0FD1  084D               	movf	___fldiv@new_exp+1,w
  6603     0FD2  3A80               	xorlw	128
  6604     0FD3  00FF               	movwf	btemp+1
  6605     0FD4  3080               	movlw	128
  6606     0FD5  027F               	subwf	btemp+1,w
  6607     0FD6  1D03               	skipz
  6608     0FD7  2FDA               	goto	u291_25
  6609     0FD8  3001               	movlw	1
  6610     0FD9  024C               	subwf	___fldiv@new_exp,w
  6611     0FDA                     u291_25:
  6612     0FDA  1803               	skipnc
  6613     0FDB  2FDD               	goto	u291_21
  6614     0FDC  2FDE               	goto	u291_20
  6615     0FDD                     u291_21:
  6616     0FDD  2FEB               	goto	i1l849
  6617     0FDE                     u291_20:
  6618     0FDE                     i1l2552:
  6619     0FDE  1283               	bcf	3,5	;RP0=0, select bank0
  6620     0FDF  1303               	bcf	3,6	;RP1=0, select bank0
  6621     0FE0  01CC               	clrf	___fldiv@new_exp
  6622     0FE1  01CD               	clrf	___fldiv@new_exp+1
  6623     0FE2                     i1l2554:
  6624     0FE2  3000               	movlw	0
  6625     0FE3  00C1               	movwf	___fldiv@b+3
  6626     0FE4  3000               	movlw	0
  6627     0FE5  00C0               	movwf	___fldiv@b+2
  6628     0FE6  3000               	movlw	0
  6629     0FE7  00BF               	movwf	___fldiv@b+1
  6630     0FE8  3000               	movlw	0
  6631     0FE9  00BE               	movwf	___fldiv@b
  6632     0FEA                     i1l2556:
  6633     0FEA  01CB               	clrf	___fldiv@sign
  6634     0FEB                     i1l849:
  6635     0FEB  1283               	bcf	3,5	;RP0=0, select bank0
  6636     0FEC  1303               	bcf	3,6	;RP1=0, select bank0
  6637     0FED  084C               	movf	___fldiv@new_exp,w
  6638     0FEE  00D2               	movwf	___fldiv@bexp
  6639     0FEF                     i1l2558:
  6640     0FEF  1C52               	btfss	___fldiv@bexp,0
  6641     0FF0  2FF2               	goto	u292_21
  6642     0FF1  2FF3               	goto	u292_20
  6643     0FF2                     u292_21:
  6644     0FF2  2FF5               	goto	i1l2562
  6645     0FF3                     u292_20:
  6646     0FF3                     i1l2560:
  6647     0FF3  17C0               	bsf	___fldiv@b+2,7
  6648     0FF4  2FF9               	goto	i1l2564
  6649     0FF5                     i1l2562:
  6650     0FF5  307F               	movlw	127
  6651     0FF6  00FF               	movwf	btemp+1
  6652     0FF7  087F               	movf	btemp+1,w
  6653     0FF8  05C0               	andwf	___fldiv@b+2,f
  6654     0FF9                     i1l2564:
  6655     0FF9  0852               	movf	___fldiv@bexp,w
  6656     0FFA  00C2               	movwf	??___fldiv
  6657     0FFB  1003               	clrc
  6658     0FFC  0C42               	rrf	??___fldiv,w
  6659     0FFD  00C1               	movwf	___fldiv@b+3
  6660     0FFE  2E9B               	goto	i1l2468
  6661     0FFF                     i1l829:
  6662     0FFF  0008               	return
  6663     1000                     __end_of___fldiv:
  6664                           
  6665                           	psect	text28
  6666     03A2                     __ptext28:	
  6667 ;; *************** function ___fladd *****************
  6668 ;; Defined at:
  6669 ;;		line 10 in file "C:\Program Files\Microchip\xc8\v2.45\pic\sources\c99\common\sprcadd.c"
  6670 ;; Parameters:    Size  Location     Type
  6671 ;;  b               4   26[BANK0 ] unsigned char 
  6672 ;;  a               4   30[BANK0 ] unsigned char 
  6673 ;; Auto vars:     Size  Location     Type
  6674 ;;  grs             1   45[BANK0 ] unsigned char 
  6675 ;;  bexp            1   44[BANK0 ] unsigned char 
  6676 ;;  aexp            1   43[BANK0 ] unsigned char 
  6677 ;;  signs           1   42[BANK0 ] unsigned char 
  6678 ;; Return value:  Size  Location     Type
  6679 ;;                  4   26[BANK0 ] unsigned char 
  6680 ;; Registers used:
  6681 ;;		wreg, status,2, status,0, btemp+1
  6682 ;; Tracked objects:
  6683 ;;		On entry : 0/0
  6684 ;;		On exit  : 0/0
  6685 ;;		Unchanged: 0/0
  6686 ;; Data sizes:     COMMON   BANK0   BANK1   BANK3   BANK2
  6687 ;;      Params:         0       8       0       0       0
  6688 ;;      Locals:         0       4       0       0       0
  6689 ;;      Temps:          0       8       0       0       0
  6690 ;;      Totals:         0      20       0       0       0
  6691 ;;Total ram usage:       20 bytes
  6692 ;; Hardware stack levels used: 1
  6693 ;; This function calls:
  6694 ;;		Nothing
  6695 ;; This function is called by:
  6696 ;;		_ccp1_isr
  6697 ;; This function uses a non-reentrant model
  6698 ;;
  6699                           
  6700     03A2                     ___fladd:	
  6701                           ;psect for function ___fladd
  6702                           
  6703     03A2                     i1l2226:	
  6704                           ;incstack = 0
  6705                           ; Regs used in ___fladd: [wreg+status,2+status,0+btemp+1]
  6706                           
  6707     03A2  1283               	bcf	3,5	;RP0=0, select bank0
  6708     03A3  1303               	bcf	3,6	;RP1=0, select bank0
  6709     03A4  083D               	movf	___fladd@b+3,w
  6710     03A5  3980               	andlw	128
  6711     03A6  00CA               	movwf	___fladd@signs
  6712     03A7                     i1l2228:
  6713     03A7  083D               	movf	___fladd@b+3,w
  6714     03A8  00C2               	movwf	??___fladd
  6715     03A9  0742               	addwf	??___fladd,w
  6716     03AA  00CC               	movwf	___fladd@bexp
  6717     03AB                     i1l2230:
  6718     03AB  1FBC               	btfss	___fladd@b+2,7
  6719     03AC  2BAE               	goto	u218_21
  6720     03AD  2BAF               	goto	u218_20
  6721     03AE                     u218_21:
  6722     03AE  2BB0               	goto	i1l2234
  6723     03AF                     u218_20:
  6724     03AF                     i1l2232:
  6725     03AF  144C               	bsf	___fladd@bexp,0
  6726     03B0                     i1l2234:
  6727     03B0  084C               	movf	___fladd@bexp,w
  6728     03B1  1903               	btfsc	3,2
  6729     03B2  2BB4               	goto	u219_21
  6730     03B3  2BB5               	goto	u219_20
  6731     03B4                     u219_21:
  6732     03B4  2BC5               	goto	i1l2244
  6733     03B5                     u219_20:
  6734     03B5                     i1l2236:
  6735     03B5  0A4C               	incf	___fladd@bexp,w
  6736     03B6  1D03               	btfss	3,2
  6737     03B7  2BB9               	goto	u220_21
  6738     03B8  2BBA               	goto	u220_20
  6739     03B9                     u220_21:
  6740     03B9  2BC2               	goto	i1l2240
  6741     03BA                     u220_20:
  6742     03BA                     i1l2238:
  6743     03BA  3000               	movlw	0
  6744     03BB  00BD               	movwf	___fladd@b+3
  6745     03BC  3000               	movlw	0
  6746     03BD  00BC               	movwf	___fladd@b+2
  6747     03BE  3000               	movlw	0
  6748     03BF  00BB               	movwf	___fladd@b+1
  6749     03C0  3000               	movlw	0
  6750     03C1  00BA               	movwf	___fladd@b
  6751     03C2                     i1l2240:
  6752     03C2  17BC               	bsf	___fladd@b+2,7
  6753     03C3                     i1l2242:
  6754     03C3  01BD               	clrf	___fladd@b+3
  6755     03C4  2BCD               	goto	i1l2246
  6756     03C5                     i1l2244:
  6757     03C5  3000               	movlw	0
  6758     03C6  00BD               	movwf	___fladd@b+3
  6759     03C7  3000               	movlw	0
  6760     03C8  00BC               	movwf	___fladd@b+2
  6761     03C9  3000               	movlw	0
  6762     03CA  00BB               	movwf	___fladd@b+1
  6763     03CB  3000               	movlw	0
  6764     03CC  00BA               	movwf	___fladd@b
  6765     03CD                     i1l2246:
  6766     03CD  0841               	movf	___fladd@a+3,w
  6767     03CE  3980               	andlw	128
  6768     03CF  00CB               	movwf	___fladd@aexp
  6769     03D0                     i1l2248:
  6770     03D0  084B               	movf	___fladd@aexp,w
  6771     03D1  064A               	xorwf	___fladd@signs,w
  6772     03D2  1903               	skipnz
  6773     03D3  2BD5               	goto	u221_21
  6774     03D4  2BD6               	goto	u221_20
  6775     03D5                     u221_21:
  6776     03D5  2BD7               	goto	i1l2252
  6777     03D6                     u221_20:
  6778     03D6                     i1l2250:
  6779     03D6  174A               	bsf	___fladd@signs,6
  6780     03D7                     i1l2252:
  6781     03D7  0841               	movf	___fladd@a+3,w
  6782     03D8  00C2               	movwf	??___fladd
  6783     03D9  0742               	addwf	??___fladd,w
  6784     03DA  00CB               	movwf	___fladd@aexp
  6785     03DB                     i1l2254:
  6786     03DB  1FC0               	btfss	___fladd@a+2,7
  6787     03DC  2BDE               	goto	u222_21
  6788     03DD  2BDF               	goto	u222_20
  6789     03DE                     u222_21:
  6790     03DE  2BE0               	goto	i1l2258
  6791     03DF                     u222_20:
  6792     03DF                     i1l2256:
  6793     03DF  144B               	bsf	___fladd@aexp,0
  6794     03E0                     i1l2258:
  6795     03E0  084B               	movf	___fladd@aexp,w
  6796     03E1  1903               	btfsc	3,2
  6797     03E2  2BE4               	goto	u223_21
  6798     03E3  2BE5               	goto	u223_20
  6799     03E4                     u223_21:
  6800     03E4  2BF5               	goto	i1l2268
  6801     03E5                     u223_20:
  6802     03E5                     i1l2260:
  6803     03E5  0A4B               	incf	___fladd@aexp,w
  6804     03E6  1D03               	btfss	3,2
  6805     03E7  2BE9               	goto	u224_21
  6806     03E8  2BEA               	goto	u224_20
  6807     03E9                     u224_21:
  6808     03E9  2BF2               	goto	i1l2264
  6809     03EA                     u224_20:
  6810     03EA                     i1l2262:
  6811     03EA  3000               	movlw	0
  6812     03EB  00C1               	movwf	___fladd@a+3
  6813     03EC  3000               	movlw	0
  6814     03ED  00C0               	movwf	___fladd@a+2
  6815     03EE  3000               	movlw	0
  6816     03EF  00BF               	movwf	___fladd@a+1
  6817     03F0  3000               	movlw	0
  6818     03F1  00BE               	movwf	___fladd@a
  6819     03F2                     i1l2264:
  6820     03F2  17C0               	bsf	___fladd@a+2,7
  6821     03F3                     i1l2266:
  6822     03F3  01C1               	clrf	___fladd@a+3
  6823     03F4  2BFD               	goto	i1l771
  6824     03F5                     i1l2268:
  6825     03F5  3000               	movlw	0
  6826     03F6  00C1               	movwf	___fladd@a+3
  6827     03F7  3000               	movlw	0
  6828     03F8  00C0               	movwf	___fladd@a+2
  6829     03F9  3000               	movlw	0
  6830     03FA  00BF               	movwf	___fladd@a+1
  6831     03FB  3000               	movlw	0
  6832     03FC  00BE               	movwf	___fladd@a
  6833     03FD                     i1l771:
  6834     03FD  084C               	movf	___fladd@bexp,w
  6835     03FE  024B               	subwf	___fladd@aexp,w
  6836     03FF  1803               	skipnc
  6837     0400  2C02               	goto	u225_21
  6838     0401  2C03               	goto	u225_20
  6839     0402                     u225_21:
  6840     0402  2C29               	goto	i1l2304
  6841     0403                     u225_20:
  6842     0403                     i1l2270:
  6843     0403  1F4A               	btfss	___fladd@signs,6
  6844     0404  2C06               	goto	u226_21
  6845     0405  2C07               	goto	u226_20
  6846     0406                     u226_21:
  6847     0406  2C0B               	goto	i1l2274
  6848     0407                     u226_20:
  6849     0407                     i1l2272:
  6850     0407  3080               	movlw	128
  6851     0408  00FF               	movwf	btemp+1
  6852     0409  087F               	movf	btemp+1,w
  6853     040A  06CA               	xorwf	___fladd@signs,f
  6854     040B                     i1l2274:
  6855     040B  084C               	movf	___fladd@bexp,w
  6856     040C  00CD               	movwf	___fladd@grs
  6857     040D                     i1l2276:
  6858     040D  084B               	movf	___fladd@aexp,w
  6859     040E  00CC               	movwf	___fladd@bexp
  6860     040F                     i1l2278:
  6861     040F  084D               	movf	___fladd@grs,w
  6862     0410  00CB               	movwf	___fladd@aexp
  6863     0411                     i1l2280:
  6864     0411  083A               	movf	___fladd@b,w
  6865     0412  00CD               	movwf	___fladd@grs
  6866     0413                     i1l2282:
  6867     0413  083E               	movf	___fladd@a,w
  6868     0414  00BA               	movwf	___fladd@b
  6869     0415                     i1l2284:
  6870     0415  084D               	movf	___fladd@grs,w
  6871     0416  00BE               	movwf	___fladd@a
  6872     0417                     i1l2286:
  6873     0417  083B               	movf	___fladd@b+1,w
  6874     0418  00CD               	movwf	___fladd@grs
  6875     0419                     i1l2288:
  6876     0419  083F               	movf	___fladd@a+1,w
  6877     041A  00BB               	movwf	___fladd@b+1
  6878     041B                     i1l2290:
  6879     041B  084D               	movf	___fladd@grs,w
  6880     041C  00BF               	movwf	___fladd@a+1
  6881     041D                     i1l2292:
  6882     041D  083C               	movf	___fladd@b+2,w
  6883     041E  00CD               	movwf	___fladd@grs
  6884     041F                     i1l2294:
  6885     041F  0840               	movf	___fladd@a+2,w
  6886     0420  00BC               	movwf	___fladd@b+2
  6887     0421                     i1l2296:
  6888     0421  084D               	movf	___fladd@grs,w
  6889     0422  00C0               	movwf	___fladd@a+2
  6890     0423                     i1l2298:
  6891     0423  083D               	movf	___fladd@b+3,w
  6892     0424  00CD               	movwf	___fladd@grs
  6893     0425                     i1l2300:
  6894     0425  0841               	movf	___fladd@a+3,w
  6895     0426  00BD               	movwf	___fladd@b+3
  6896     0427                     i1l2302:
  6897     0427  084D               	movf	___fladd@grs,w
  6898     0428  00C1               	movwf	___fladd@a+3
  6899     0429                     i1l2304:
  6900     0429  01CD               	clrf	___fladd@grs
  6901     042A                     i1l2306:
  6902     042A  084B               	movf	___fladd@aexp,w
  6903     042B  00C2               	movwf	??___fladd
  6904     042C  01C3               	clrf	??___fladd+1
  6905     042D  0843               	movf	??___fladd+1,w
  6906     042E  00C5               	movwf	??___fladd+3
  6907     042F  084C               	movf	___fladd@bexp,w
  6908     0430  0242               	subwf	??___fladd,w
  6909     0431  00C4               	movwf	??___fladd+2
  6910     0432  1C03               	skipc
  6911     0433  03C5               	decf	??___fladd+3,f
  6912     0434  0845               	movf	??___fladd+3,w
  6913     0435  3A80               	xorlw	128
  6914     0436  00FF               	movwf	btemp+1
  6915     0437  3080               	movlw	128
  6916     0438  027F               	subwf	btemp+1,w
  6917     0439  1D03               	skipz
  6918     043A  2C3D               	goto	u227_25
  6919     043B  301A               	movlw	26
  6920     043C  0244               	subwf	??___fladd+2,w
  6921     043D                     u227_25:
  6922     043D  1C03               	skipc
  6923     043E  2C40               	goto	u227_21
  6924     043F  2C41               	goto	u227_20
  6925     0440                     u227_21:
  6926     0440  2C78               	goto	i1l2322
  6927     0441                     u227_20:
  6928     0441                     i1l2308:
  6929     0441  1283               	bcf	3,5	;RP0=0, select bank0
  6930     0442  1303               	bcf	3,6	;RP1=0, select bank0
  6931     0443  083D               	movf	___fladd@b+3,w
  6932     0444  043C               	iorwf	___fladd@b+2,w
  6933     0445  043B               	iorwf	___fladd@b+1,w
  6934     0446  043A               	iorwf	___fladd@b,w
  6935     0447  1D03               	skipz
  6936     0448  2C4A               	goto	u228_21
  6937     0449  2C4C               	goto	u228_20
  6938     044A                     u228_21:
  6939     044A  3001               	movlw	1
  6940     044B  2C4D               	goto	u229_20
  6941     044C                     u228_20:
  6942     044C  3000               	movlw	0
  6943     044D                     u229_20:
  6944     044D  00CD               	movwf	___fladd@grs
  6945     044E  3000               	movlw	0
  6946     044F  00BD               	movwf	___fladd@b+3
  6947     0450  3000               	movlw	0
  6948     0451  00BC               	movwf	___fladd@b+2
  6949     0452  3000               	movlw	0
  6950     0453  00BB               	movwf	___fladd@b+1
  6951     0454  3000               	movlw	0
  6952     0455  00BA               	movwf	___fladd@b
  6953     0456  084B               	movf	___fladd@aexp,w
  6954     0457  00CC               	movwf	___fladd@bexp
  6955     0458  2C80               	goto	i1l775
  6956     0459                     i1l777:
  6957     0459  1C4D               	btfss	___fladd@grs,0
  6958     045A  2C5C               	goto	u230_21
  6959     045B  2C5D               	goto	u230_20
  6960     045C                     u230_21:
  6961     045C  2C64               	goto	i1l2312
  6962     045D                     u230_20:
  6963     045D                     i1l2310:
  6964     045D  084D               	movf	___fladd@grs,w
  6965     045E  00C2               	movwf	??___fladd
  6966     045F  1003               	clrc
  6967     0460  0C42               	rrf	??___fladd,w
  6968     0461  3801               	iorlw	1
  6969     0462  00CD               	movwf	___fladd@grs
  6970     0463  2C66               	goto	i1l2314
  6971     0464                     i1l2312:
  6972     0464  1003               	clrc
  6973     0465  0CCD               	rrf	___fladd@grs,f
  6974     0466                     i1l2314:
  6975     0466  1C3A               	btfss	___fladd@b,0
  6976     0467  2C69               	goto	u231_21
  6977     0468  2C6A               	goto	u231_20
  6978     0469                     u231_21:
  6979     0469  2C6B               	goto	i1l2318
  6980     046A                     u231_20:
  6981     046A                     i1l2316:
  6982     046A  17CD               	bsf	___fladd@grs,7
  6983     046B                     i1l2318:
  6984     046B  3001               	movlw	1
  6985     046C  00C2               	movwf	??___fladd
  6986     046D                     u232_25:
  6987     046D  0D3D               	rlf	___fladd@b+3,w
  6988     046E  0CBD               	rrf	___fladd@b+3,f
  6989     046F  0CBC               	rrf	___fladd@b+2,f
  6990     0470  0CBB               	rrf	___fladd@b+1,f
  6991     0471  0CBA               	rrf	___fladd@b,f
  6992     0472  0BC2               	decfsz	??___fladd& (0+127),f
  6993     0473  2C6D               	goto	u232_25
  6994     0474                     i1l2320:
  6995     0474  3001               	movlw	1
  6996     0475  00FF               	movwf	btemp+1
  6997     0476  087F               	movf	btemp+1,w
  6998     0477  07CC               	addwf	___fladd@bexp,f
  6999     0478                     i1l2322:
  7000     0478  1283               	bcf	3,5	;RP0=0, select bank0
  7001     0479  1303               	bcf	3,6	;RP1=0, select bank0
  7002     047A  084B               	movf	___fladd@aexp,w
  7003     047B  024C               	subwf	___fladd@bexp,w
  7004     047C  1C03               	skipc
  7005     047D  2C7F               	goto	u233_21
  7006     047E  2C80               	goto	u233_20
  7007     047F                     u233_21:
  7008     047F  2C59               	goto	i1l777
  7009     0480                     u233_20:
  7010     0480                     i1l775:
  7011     0480  1B4A               	btfsc	___fladd@signs,6
  7012     0481  2C83               	goto	u234_21
  7013     0482  2C84               	goto	u234_20
  7014     0483                     u234_21:
  7015     0483  2CCD               	goto	i1l2348
  7016     0484                     u234_20:
  7017     0484                     i1l2324:
  7018     0484  084C               	movf	___fladd@bexp,w
  7019     0485  1D03               	btfss	3,2
  7020     0486  2C88               	goto	u235_21
  7021     0487  2C89               	goto	u235_20
  7022     0488                     u235_21:
  7023     0488  2C92               	goto	i1l2330
  7024     0489                     u235_20:
  7025     0489                     i1l2326:
  7026     0489  3000               	movlw	0
  7027     048A  00BD               	movwf	?___fladd+3
  7028     048B  3000               	movlw	0
  7029     048C  00BC               	movwf	?___fladd+2
  7030     048D  3000               	movlw	0
  7031     048E  00BB               	movwf	?___fladd+1
  7032     048F  3000               	movlw	0
  7033     0490  00BA               	movwf	?___fladd
  7034     0491  2DF9               	goto	i1l784
  7035     0492                     i1l2330:
  7036     0492  083E               	movf	___fladd@a,w
  7037     0493  07BA               	addwf	___fladd@b,f
  7038     0494  083F               	movf	___fladd@a+1,w
  7039     0495  1103               	clrz
  7040     0496  1803               	skipnc
  7041     0497  3E01               	addlw	1
  7042     0498  1903               	skipnz
  7043     0499  2C9B               	goto	u236_21
  7044     049A  07BB               	addwf	___fladd@b+1,f
  7045     049B                     u236_21:
  7046     049B  0840               	movf	___fladd@a+2,w
  7047     049C  1103               	clrz
  7048     049D  1803               	skipnc
  7049     049E  3E01               	addlw	1
  7050     049F  1903               	skipnz
  7051     04A0  2CA2               	goto	u236_22
  7052     04A1  07BC               	addwf	___fladd@b+2,f
  7053     04A2                     u236_22:
  7054     04A2  0841               	movf	___fladd@a+3,w
  7055     04A3  1103               	clrz
  7056     04A4  1803               	skipnc
  7057     04A5  3E01               	addlw	1
  7058     04A6  1903               	skipnz
  7059     04A7  2CA9               	goto	u236_23
  7060     04A8  07BD               	addwf	___fladd@b+3,f
  7061     04A9                     u236_23:
  7062     04A9                     i1l2332:
  7063     04A9  1C3D               	btfss	___fladd@b+3,0
  7064     04AA  2CAC               	goto	u237_21
  7065     04AB  2CAD               	goto	u237_20
  7066     04AC                     u237_21:
  7067     04AC  2D81               	goto	i1l2384
  7068     04AD                     u237_20:
  7069     04AD                     i1l2334:
  7070     04AD  1C4D               	btfss	___fladd@grs,0
  7071     04AE  2CB0               	goto	u238_21
  7072     04AF  2CB1               	goto	u238_20
  7073     04B0                     u238_21:
  7074     04B0  2CB8               	goto	i1l2338
  7075     04B1                     u238_20:
  7076     04B1                     i1l2336:
  7077     04B1  084D               	movf	___fladd@grs,w
  7078     04B2  00C2               	movwf	??___fladd
  7079     04B3  1003               	clrc
  7080     04B4  0C42               	rrf	??___fladd,w
  7081     04B5  3801               	iorlw	1
  7082     04B6  00CD               	movwf	___fladd@grs
  7083     04B7  2CBA               	goto	i1l2340
  7084     04B8                     i1l2338:
  7085     04B8  1003               	clrc
  7086     04B9  0CCD               	rrf	___fladd@grs,f
  7087     04BA                     i1l2340:
  7088     04BA  1C3A               	btfss	___fladd@b,0
  7089     04BB  2CBD               	goto	u239_21
  7090     04BC  2CBE               	goto	u239_20
  7091     04BD                     u239_21:
  7092     04BD  2CBF               	goto	i1l2344
  7093     04BE                     u239_20:
  7094     04BE                     i1l2342:
  7095     04BE  17CD               	bsf	___fladd@grs,7
  7096     04BF                     i1l2344:
  7097     04BF  3001               	movlw	1
  7098     04C0  00C2               	movwf	??___fladd
  7099     04C1                     u240_25:
  7100     04C1  0D3D               	rlf	___fladd@b+3,w
  7101     04C2  0CBD               	rrf	___fladd@b+3,f
  7102     04C3  0CBC               	rrf	___fladd@b+2,f
  7103     04C4  0CBB               	rrf	___fladd@b+1,f
  7104     04C5  0CBA               	rrf	___fladd@b,f
  7105     04C6  0BC2               	decfsz	??___fladd& (0+127),f
  7106     04C7  2CC1               	goto	u240_25
  7107     04C8                     i1l2346:
  7108     04C8  3001               	movlw	1
  7109     04C9  00FF               	movwf	btemp+1
  7110     04CA  087F               	movf	btemp+1,w
  7111     04CB  07CC               	addwf	___fladd@bexp,f
  7112     04CC  2D81               	goto	i1l2384
  7113     04CD                     i1l2348:
  7114     04CD  083D               	movf	___fladd@b+3,w
  7115     04CE  3A80               	xorlw	128
  7116     04CF  00FF               	movwf	btemp+1
  7117     04D0  0841               	movf	___fladd@a+3,w
  7118     04D1  3A80               	xorlw	128
  7119     04D2  027F               	subwf	btemp+1,w
  7120     04D3  1D03               	skipz
  7121     04D4  2CDF               	goto	u241_23
  7122     04D5  0840               	movf	___fladd@a+2,w
  7123     04D6  023C               	subwf	___fladd@b+2,w
  7124     04D7  1D03               	skipz
  7125     04D8  2CDF               	goto	u241_23
  7126     04D9  083F               	movf	___fladd@a+1,w
  7127     04DA  023B               	subwf	___fladd@b+1,w
  7128     04DB  1D03               	skipz
  7129     04DC  2CDF               	goto	u241_23
  7130     04DD  083E               	movf	___fladd@a,w
  7131     04DE  023A               	subwf	___fladd@b,w
  7132     04DF                     u241_23:
  7133     04DF  1803               	skipnc
  7134     04E0  2CE2               	goto	u241_21
  7135     04E1  2CE3               	goto	u241_20
  7136     04E2                     u241_21:
  7137     04E2  2D3B               	goto	i1l2360
  7138     04E3                     u241_20:
  7139     04E3                     i1l2350:
  7140     04E3  30FF               	movlw	255
  7141     04E4  00C2               	movwf	??___fladd
  7142     04E5  30FF               	movlw	255
  7143     04E6  00C3               	movwf	??___fladd+1
  7144     04E7  30FF               	movlw	255
  7145     04E8  00C4               	movwf	??___fladd+2
  7146     04E9  30FF               	movlw	255
  7147     04EA  00C5               	movwf	??___fladd+3
  7148     04EB  083E               	movf	___fladd@a,w
  7149     04EC  00C6               	movwf	??___fladd+4
  7150     04ED  083F               	movf	___fladd@a+1,w
  7151     04EE  00C7               	movwf	??___fladd+5
  7152     04EF  0840               	movf	___fladd@a+2,w
  7153     04F0  00C8               	movwf	??___fladd+6
  7154     04F1  0841               	movf	___fladd@a+3,w
  7155     04F2  00C9               	movwf	??___fladd+7
  7156     04F3  083A               	movf	___fladd@b,w
  7157     04F4  02C6               	subwf	??___fladd+4,f
  7158     04F5  083B               	movf	___fladd@b+1,w
  7159     04F6  1C03               	skipc
  7160     04F7  0F3B               	incfsz	___fladd@b+1,w
  7161     04F8  2CFA               	goto	u242_21
  7162     04F9  2CFB               	goto	u242_22
  7163     04FA                     u242_21:
  7164     04FA  02C7               	subwf	??___fladd+5,f
  7165     04FB                     u242_22:
  7166     04FB  083C               	movf	___fladd@b+2,w
  7167     04FC  1C03               	skipc
  7168     04FD  0F3C               	incfsz	___fladd@b+2,w
  7169     04FE  2D00               	goto	u242_23
  7170     04FF  2D01               	goto	u242_24
  7171     0500                     u242_23:
  7172     0500  02C8               	subwf	??___fladd+6,f
  7173     0501                     u242_24:
  7174     0501  083D               	movf	___fladd@b+3,w
  7175     0502  1C03               	skipc
  7176     0503  0F3D               	incfsz	___fladd@b+3,w
  7177     0504  2D06               	goto	u242_25
  7178     0505  2D07               	goto	u242_26
  7179     0506                     u242_25:
  7180     0506  02C9               	subwf	??___fladd+7,f
  7181     0507                     u242_26:
  7182     0507  0846               	movf	??___fladd+4,w
  7183     0508  07C2               	addwf	??___fladd,f
  7184     0509  0847               	movf	??___fladd+5,w
  7185     050A  1803               	skipnc
  7186     050B  0F47               	incfsz	??___fladd+5,w
  7187     050C  2D0E               	goto	u243_20
  7188     050D  2D0F               	goto	u243_21
  7189     050E                     u243_20:
  7190     050E  07C3               	addwf	??___fladd+1,f
  7191     050F                     u243_21:
  7192     050F  0848               	movf	??___fladd+6,w
  7193     0510  1803               	skipnc
  7194     0511  0F48               	incfsz	??___fladd+6,w
  7195     0512  2D14               	goto	u243_22
  7196     0513  2D15               	goto	u243_23
  7197     0514                     u243_22:
  7198     0514  07C4               	addwf	??___fladd+2,f
  7199     0515                     u243_23:
  7200     0515  0849               	movf	??___fladd+7,w
  7201     0516  1803               	skipnc
  7202     0517  0A49               	incf	??___fladd+7,w
  7203     0518  07C5               	addwf	??___fladd+3,f
  7204     0519  0845               	movf	??___fladd+3,w
  7205     051A  00BD               	movwf	___fladd@b+3
  7206     051B  0844               	movf	??___fladd+2,w
  7207     051C  00BC               	movwf	___fladd@b+2
  7208     051D  0843               	movf	??___fladd+1,w
  7209     051E  00BB               	movwf	___fladd@b+1
  7210     051F  0842               	movf	??___fladd,w
  7211     0520  00BA               	movwf	___fladd@b
  7212     0521                     i1l2352:
  7213     0521  3080               	movlw	128
  7214     0522  00FF               	movwf	btemp+1
  7215     0523  087F               	movf	btemp+1,w
  7216     0524  06CA               	xorwf	___fladd@signs,f
  7217     0525                     i1l2354:
  7218     0525  09CD               	comf	___fladd@grs,f
  7219     0526  0ACD               	incf	___fladd@grs,f
  7220     0527                     i1l2356:
  7221     0527  084D               	movf	___fladd@grs,w
  7222     0528  1D03               	btfss	3,2
  7223     0529  2D2B               	goto	u244_21
  7224     052A  2D2C               	goto	u244_20
  7225     052B                     u244_21:
  7226     052B  2D49               	goto	i1l792
  7227     052C                     u244_20:
  7228     052C                     i1l2358:
  7229     052C  3001               	movlw	1
  7230     052D  07BA               	addwf	___fladd@b,f
  7231     052E  3000               	movlw	0
  7232     052F  1803               	skipnc
  7233     0530  3001               	movlw	1
  7234     0531  07BB               	addwf	___fladd@b+1,f
  7235     0532  3000               	movlw	0
  7236     0533  1803               	skipnc
  7237     0534  3001               	movlw	1
  7238     0535  07BC               	addwf	___fladd@b+2,f
  7239     0536  3000               	movlw	0
  7240     0537  1803               	skipnc
  7241     0538  3001               	movlw	1
  7242     0539  07BD               	addwf	___fladd@b+3,f
  7243     053A  2D49               	goto	i1l792
  7244     053B                     i1l2360:
  7245     053B  083E               	movf	___fladd@a,w
  7246     053C  02BA               	subwf	___fladd@b,f
  7247     053D  083F               	movf	___fladd@a+1,w
  7248     053E  1C03               	skipc
  7249     053F  0F3F               	incfsz	___fladd@a+1,w
  7250     0540  02BB               	subwf	___fladd@b+1,f
  7251     0541  0840               	movf	___fladd@a+2,w
  7252     0542  1C03               	skipc
  7253     0543  0F40               	incfsz	___fladd@a+2,w
  7254     0544  02BC               	subwf	___fladd@b+2,f
  7255     0545  0841               	movf	___fladd@a+3,w
  7256     0546  1C03               	skipc
  7257     0547  0F41               	incfsz	___fladd@a+3,w
  7258     0548  02BD               	subwf	___fladd@b+3,f
  7259     0549                     i1l792:
  7260     0549  083D               	movf	___fladd@b+3,w
  7261     054A  043C               	iorwf	___fladd@b+2,w
  7262     054B  043B               	iorwf	___fladd@b+1,w
  7263     054C  043A               	iorwf	___fladd@b,w
  7264     054D  1D03               	skipz
  7265     054E  2D50               	goto	u245_21
  7266     054F  2D51               	goto	u245_20
  7267     0550                     u245_21:
  7268     0550  2D7D               	goto	i1l2382
  7269     0551                     u245_20:
  7270     0551                     i1l2362:
  7271     0551  084D               	movf	___fladd@grs,w
  7272     0552  1D03               	btfss	3,2
  7273     0553  2D55               	goto	u246_21
  7274     0554  2D56               	goto	u246_20
  7275     0555                     u246_21:
  7276     0555  2D7D               	goto	i1l2382
  7277     0556                     u246_20:
  7278     0556                     i1l2364:
  7279     0556  3000               	movlw	0
  7280     0557  00BD               	movwf	?___fladd+3
  7281     0558  3000               	movlw	0
  7282     0559  00BC               	movwf	?___fladd+2
  7283     055A  3000               	movlw	0
  7284     055B  00BB               	movwf	?___fladd+1
  7285     055C  3000               	movlw	0
  7286     055D  00BA               	movwf	?___fladd
  7287     055E  2DF9               	goto	i1l784
  7288     055F                     i1l2368:
  7289     055F  3001               	movlw	1
  7290     0560  00C2               	movwf	??___fladd
  7291     0561                     u247_25:
  7292     0561  1003               	clrc
  7293     0562  0DBA               	rlf	___fladd@b,f
  7294     0563  0DBB               	rlf	___fladd@b+1,f
  7295     0564  0DBC               	rlf	___fladd@b+2,f
  7296     0565  0DBD               	rlf	___fladd@b+3,f
  7297     0566  0BC2               	decfsz	??___fladd,f
  7298     0567  2D61               	goto	u247_25
  7299     0568                     i1l2370:
  7300     0568  1FCD               	btfss	___fladd@grs,7
  7301     0569  2D6B               	goto	u248_21
  7302     056A  2D6C               	goto	u248_20
  7303     056B                     u248_21:
  7304     056B  2D6D               	goto	i1l796
  7305     056C                     u248_20:
  7306     056C                     i1l2372:
  7307     056C  143A               	bsf	___fladd@b,0
  7308     056D                     i1l796:
  7309     056D  1C4D               	btfss	___fladd@grs,0
  7310     056E  2D70               	goto	u249_21
  7311     056F  2D71               	goto	u249_20
  7312     0570                     u249_21:
  7313     0570  2D74               	goto	i1l2376
  7314     0571                     u249_20:
  7315     0571                     i1l2374:
  7316     0571  1403               	setc
  7317     0572  0DCD               	rlf	___fladd@grs,f
  7318     0573  2D76               	goto	i1l2378
  7319     0574                     i1l2376:
  7320     0574  1003               	clrc
  7321     0575  0DCD               	rlf	___fladd@grs,f
  7322     0576                     i1l2378:
  7323     0576  084C               	movf	___fladd@bexp,w
  7324     0577  1903               	btfsc	3,2
  7325     0578  2D7A               	goto	u250_21
  7326     0579  2D7B               	goto	u250_20
  7327     057A                     u250_21:
  7328     057A  2D7D               	goto	i1l2382
  7329     057B                     u250_20:
  7330     057B                     i1l2380:
  7331     057B  3001               	movlw	1
  7332     057C  02CC               	subwf	___fladd@bexp,f
  7333     057D                     i1l2382:
  7334     057D  1FBC               	btfss	___fladd@b+2,7
  7335     057E  2D80               	goto	u251_21
  7336     057F  2D81               	goto	u251_20
  7337     0580                     u251_21:
  7338     0580  2D5F               	goto	i1l2368
  7339     0581                     u251_20:
  7340     0581                     i1l2384:
  7341     0581  01CB               	clrf	___fladd@aexp
  7342     0582                     i1l2386:
  7343     0582  1FCD               	btfss	___fladd@grs,7
  7344     0583  2D85               	goto	u252_21
  7345     0584  2D86               	goto	u252_20
  7346     0585                     u252_21:
  7347     0585  2D94               	goto	i1l2394
  7348     0586                     u252_20:
  7349     0586                     i1l2388:
  7350     0586  084D               	movf	___fladd@grs,w
  7351     0587  397F               	andlw	127
  7352     0588  1903               	btfsc	3,2
  7353     0589  2D8B               	goto	u253_21
  7354     058A  2D8C               	goto	u253_20
  7355     058B                     u253_21:
  7356     058B  2D8F               	goto	i1l802
  7357     058C                     u253_20:
  7358     058C                     i1l2390:
  7359     058C  01CB               	clrf	___fladd@aexp
  7360     058D  0ACB               	incf	___fladd@aexp,f
  7361     058E  2D94               	goto	i1l2394
  7362     058F                     i1l802:
  7363     058F  1C3A               	btfss	___fladd@b,0
  7364     0590  2D92               	goto	u254_21
  7365     0591  2D93               	goto	u254_20
  7366     0592                     u254_21:
  7367     0592  2D94               	goto	i1l2394
  7368     0593                     u254_20:
  7369     0593  2D8C               	goto	i1l2390
  7370     0594                     i1l2394:
  7371     0594  084B               	movf	___fladd@aexp,w
  7372     0595  1903               	btfsc	3,2
  7373     0596  2D98               	goto	u255_21
  7374     0597  2D99               	goto	u255_20
  7375     0598                     u255_21:
  7376     0598  2DCD               	goto	i1l2404
  7377     0599                     u255_20:
  7378     0599                     i1l2396:
  7379     0599  3001               	movlw	1
  7380     059A  07BA               	addwf	___fladd@b,f
  7381     059B  3000               	movlw	0
  7382     059C  1803               	skipnc
  7383     059D  3001               	movlw	1
  7384     059E  07BB               	addwf	___fladd@b+1,f
  7385     059F  3000               	movlw	0
  7386     05A0  1803               	skipnc
  7387     05A1  3001               	movlw	1
  7388     05A2  07BC               	addwf	___fladd@b+2,f
  7389     05A3  3000               	movlw	0
  7390     05A4  1803               	skipnc
  7391     05A5  3001               	movlw	1
  7392     05A6  07BD               	addwf	___fladd@b+3,f
  7393     05A7                     i1l2398:
  7394     05A7  1C3D               	btfss	___fladd@b+3,0
  7395     05A8  2DAA               	goto	u256_21
  7396     05A9  2DAB               	goto	u256_20
  7397     05AA                     u256_21:
  7398     05AA  2DCD               	goto	i1l2404
  7399     05AB                     u256_20:
  7400     05AB                     i1l2400:
  7401     05AB  083A               	movf	___fladd@b,w
  7402     05AC  00C2               	movwf	??___fladd
  7403     05AD  083B               	movf	___fladd@b+1,w
  7404     05AE  00C3               	movwf	??___fladd+1
  7405     05AF  083C               	movf	___fladd@b+2,w
  7406     05B0  00C4               	movwf	??___fladd+2
  7407     05B1  083D               	movf	___fladd@b+3,w
  7408     05B2  00C5               	movwf	??___fladd+3
  7409     05B3  3001               	movlw	1
  7410     05B4  00C6               	movwf	??___fladd+4
  7411     05B5                     u257_25:
  7412     05B5  0D45               	rlf	??___fladd+3,w
  7413     05B6  0CC5               	rrf	??___fladd+3,f
  7414     05B7  0CC4               	rrf	??___fladd+2,f
  7415     05B8  0CC3               	rrf	??___fladd+1,f
  7416     05B9  0CC2               	rrf	??___fladd,f
  7417     05BA                     u257_20:
  7418     05BA  0BC6               	decfsz	??___fladd+4,f
  7419     05BB  2DB5               	goto	u257_25
  7420     05BC  0845               	movf	??___fladd+3,w
  7421     05BD  00BD               	movwf	___fladd@b+3
  7422     05BE  0844               	movf	??___fladd+2,w
  7423     05BF  00BC               	movwf	___fladd@b+2
  7424     05C0  0843               	movf	??___fladd+1,w
  7425     05C1  00BB               	movwf	___fladd@b+1
  7426     05C2  0842               	movf	??___fladd,w
  7427     05C3  00BA               	movwf	___fladd@b
  7428     05C4  0A4C               	incf	___fladd@bexp,w
  7429     05C5  1903               	btfsc	3,2
  7430     05C6  2DC8               	goto	u258_21
  7431     05C7  2DC9               	goto	u258_20
  7432     05C8                     u258_21:
  7433     05C8  2DCD               	goto	i1l2404
  7434     05C9                     u258_20:
  7435     05C9                     i1l2402:
  7436     05C9  3001               	movlw	1
  7437     05CA  00FF               	movwf	btemp+1
  7438     05CB  087F               	movf	btemp+1,w
  7439     05CC  07CC               	addwf	___fladd@bexp,f
  7440     05CD                     i1l2404:
  7441     05CD  0A4C               	incf	___fladd@bexp,w
  7442     05CE  1903               	btfsc	3,2
  7443     05CF  2DD1               	goto	u259_21
  7444     05D0  2DD2               	goto	u259_20
  7445     05D1                     u259_21:
  7446     05D1  2DD7               	goto	i1l2408
  7447     05D2                     u259_20:
  7448     05D2                     i1l2406:
  7449     05D2  084C               	movf	___fladd@bexp,w
  7450     05D3  1D03               	btfss	3,2
  7451     05D4  2DD6               	goto	u260_21
  7452     05D5  2DD7               	goto	u260_20
  7453     05D6                     u260_21:
  7454     05D6  2DE5               	goto	i1l2414
  7455     05D7                     u260_20:
  7456     05D7                     i1l2408:
  7457     05D7  3000               	movlw	0
  7458     05D8  00BD               	movwf	___fladd@b+3
  7459     05D9  3000               	movlw	0
  7460     05DA  00BC               	movwf	___fladd@b+2
  7461     05DB  3000               	movlw	0
  7462     05DC  00BB               	movwf	___fladd@b+1
  7463     05DD  3000               	movlw	0
  7464     05DE  00BA               	movwf	___fladd@b
  7465     05DF                     i1l2410:
  7466     05DF  084C               	movf	___fladd@bexp,w
  7467     05E0  1D03               	btfss	3,2
  7468     05E1  2DE3               	goto	u261_21
  7469     05E2  2DE4               	goto	u261_20
  7470     05E3                     u261_21:
  7471     05E3  2DE5               	goto	i1l2414
  7472     05E4                     u261_20:
  7473     05E4                     i1l2412:
  7474     05E4  01CA               	clrf	___fladd@signs
  7475     05E5                     i1l2414:
  7476     05E5  1C4C               	btfss	___fladd@bexp,0
  7477     05E6  2DE8               	goto	u262_21
  7478     05E7  2DE9               	goto	u262_20
  7479     05E8                     u262_21:
  7480     05E8  2DEB               	goto	i1l2418
  7481     05E9                     u262_20:
  7482     05E9                     i1l2416:
  7483     05E9  17BC               	bsf	___fladd@b+2,7
  7484     05EA  2DEF               	goto	i1l2420
  7485     05EB                     i1l2418:
  7486     05EB  307F               	movlw	127
  7487     05EC  00FF               	movwf	btemp+1
  7488     05ED  087F               	movf	btemp+1,w
  7489     05EE  05BC               	andwf	___fladd@b+2,f
  7490     05EF                     i1l2420:
  7491     05EF  084C               	movf	___fladd@bexp,w
  7492     05F0  00C2               	movwf	??___fladd
  7493     05F1  1003               	clrc
  7494     05F2  0C42               	rrf	??___fladd,w
  7495     05F3  00BD               	movwf	___fladd@b+3
  7496     05F4                     i1l2422:
  7497     05F4  1FCA               	btfss	___fladd@signs,7
  7498     05F5  2DF7               	goto	u263_21
  7499     05F6  2DF8               	goto	u263_20
  7500     05F7                     u263_21:
  7501     05F7  2DF9               	goto	i1l814
  7502     05F8                     u263_20:
  7503     05F8                     i1l2424:
  7504     05F8  17BD               	bsf	___fladd@b+3,7
  7505     05F9                     i1l814:
  7506     05F9                     i1l784:
  7507     05F9  0008               	return
  7508     05FA                     __end_of___fladd:
  7509     0006                     
  7510                           	psect	functab
  7511     004D                     __pfunctab:
  7512     004D                     fptable:
  7513     004D  284D               	goto	fptable	;no entries
  7514     004E                     __i1fptable:
  7515     004E                     i1fptable:
  7516     004E  00FF               	movwf	(btemp+1)& (0+127)
  7517     004F  3000               	movlw	high i1fptable
  7518     0050  008A               	movwf	10
  7519     0051  087F               	movf	(btemp+1)& (0+127),w
  7520     0052  0782               	addwf	2,f
  7521     0053                     i1fpbase:
  7522     0053  2853               	goto	i1fpbase	; Call via a null pointer and you will get stuck here.
  7523     0054                     fp__ccp1_isr:
  7524     0054  120A  118A  2DFA   	ljmp	_ccp1_isr
  7525     0057                     fp__ccp2_isr:
  7526     0057  160A  118A  2FC5   	ljmp	_ccp2_isr
  7527     005A                     fp__timer1_isr:
  7528     005A  120A  158A  28DF   	ljmp	_timer1_isr
  7529     005D                     __end_of__i1fptable:
  7530     007E                     btemp	set	126	;btemp
  7531     007E                     wtemp0	set	126
  7532                           
  7533                           	psect	config
  7534                           
  7535                           ;Config register CONFIG @ 0x2007
  7536                           ;	Oscillator Selection bits
  7537                           ;	FOSC = HS, HS oscillator
  7538                           ;	Watchdog Timer Enable bit
  7539                           ;	WDTE = OFF, WDT disabled
  7540                           ;	Power-up Timer Enable bit
  7541                           ;	PWRTE = OFF, PWRT disabled
  7542                           ;	Brown-out Reset Enable bit
  7543                           ;	BOREN = OFF, BOR disabled
  7544                           ;	Low-Voltage (Single-Supply) In-Circuit Serial Programming Enable bit
  7545                           ;	LVP = OFF, RB3 is digital I/O, HV on MCLR must be used for programming
  7546                           ;	Data EEPROM Memory Code Protection bit
  7547                           ;	CPD = OFF, Data EEPROM code protection off
  7548                           ;	Flash Program Memory Write Enable bits
  7549                           ;	WRT = OFF, Write protection off; all program memory may be written to by EECON control
  7550                           ;	In-Circuit Debugger Mode bit
  7551                           ;	DEBUG = 0x1, unprogrammed default
  7552                           ;	Flash Program Memory Code Protection bit
  7553                           ;	CP = OFF, Code protection off
  7554     2007                     	org	8199
  7555     2007  3F3A               	dw	16186

Data Sizes:
    Strings     0
    Constant    0
    Data        37
    BSS         21
    Persistent  0
    Stack       0

Auto Spaces:
    Space          Size  Autos    Used
    COMMON           14     14      14
    BANK0            80     64      77
    BANK1            80     16      61
    BANK3            96      0       0
    BANK2            96      0       0

Pointer List with Targets:

    ccp1$CCP1_InterruptHandler	PTR FTN()void  size(1) Largest target is 1
		 -> ccp1_isr(), 

    ccp1_init@ccp1_obj	PTR const struct . size(1) Largest target is 2
		 -> ccp1(BANK1[2]), 

    ccp1_init@ccp1_obj$CCP1_InterruptHandler	PTR FTN()void  size(1) Largest target is 1
		 -> ccp1_isr(), 

    ccp1_InterruptHandler	PTR FTN()void  size(1) Largest target is 1
		 -> ccp1_isr(), NULL(), 

    ccp2$CCP2_InterruptHandler	PTR FTN()void  size(1) Largest target is 1
		 -> ccp2_isr(), 

    ccp2_init@ccp2_obj	PTR const struct . size(1) Largest target is 2
		 -> ccp2(BANK1[2]), 

    ccp2_init@ccp2_obj$CCP2_InterruptHandler	PTR FTN()void  size(1) Largest target is 1
		 -> ccp2_isr(), 

    ccp2_InterruptHandler	PTR FTN()void  size(1) Largest target is 1
		 -> ccp2_isr(), NULL(), 

    gpio_pin_direction_initialize@pin_config	PTR const struct . size(1) Largest target is 1
		 -> servo(BANK1[1]), trigger(BANK1[1]), 

    gpio_pin_initialize@pin_config	PTR const struct . size(1) Largest target is 1
		 -> servo(BANK1[1]), trigger(BANK1[1]), 

    gpio_pin_write_logic@pin_config	PTR const struct . size(1) Largest target is 1
		 -> servo(BANK1[1]), trigger(BANK1[1]), 

    port_registers	PTR volatile unsigned char [5] size(2) Largest target is 1
		 -> PORTA(SFR0[1]), PORTB(SFR0[1]), PORTC(SFR0[1]), PORTD(SFR0[1]), 
		 -> PORTE(SFR0[1]), 

    S126$CCP2_InterruptHandler	PTR FTN()void  size(1) Largest target is 1
		 -> ccp2_isr(), 

    S25$CCP1_InterruptHandler	PTR FTN()void  size(1) Largest target is 1
		 -> ccp1_isr(), 

    S459$TIMER1_InterruptHandler	PTR FTN()void  size(1) Largest target is 1
		 -> timer1_isr(), 

    sensor_initialize@trigger_pin	PTR struct . size(1) Largest target is 1
		 -> trigger(BANK1[1]), 

    servo_initialize@servo_pin	PTR struct . size(1) Largest target is 1
		 -> servo(BANK1[1]), 

    timer1_deinti@tmr1_obj$TIMER1_InterruptHandler	PTR FTN()void  size(1) Largest target is 0
		 -> timer1_isr(), 

    TIMER1_InterruptHandler	PTR FTN()void  size(1) Largest target is 1
		 -> timer1_isr(), NULL(), 

    timer1_inti@tmr1_obj	PTR struct . size(1) Largest target is 4
		 -> tmr1(BANK1[4]), 

    timer1_inti@tmr1_obj$TIMER1_InterruptHandler	PTR FTN()void  size(1) Largest target is 1
		 -> timer1_isr(), 

    timer1_register_read@tmr1_obj$TIMER1_InterruptHandler	PTR FTN()void  size(1) Largest target is 0
		 -> timer1_isr(), 

    timer1_register_write@tmr1_obj$TIMER1_InterruptHandler	PTR FTN()void  size(1) Largest target is 0
		 -> timer1_isr(), 

    tmr1$TIMER1_InterruptHandler	PTR FTN()void  size(1) Largest target is 1
		 -> timer1_isr(), 

    tris_registers	PTR volatile unsigned char [5] size(2) Largest target is 1
		 -> TRISA(SFR1[1]), TRISB(SFR1[1]), TRISC(SFR1[1]), TRISD(SFR1[1]), 
		 -> TRISE(SFR1[1]), 


Critical Paths under _main in COMMON

    None.

Critical Paths under _InterruptManager in COMMON

    _TIMER1_ISR->_timer1_isr
    _timer1_isr->i1_gpio_pin_write_logic
    _ccp2_isr->i1_gpio_pin_write_logic
    _ccp1_isr->___xxtofl
    ___flmul->___xxtofl
    ___fladd->___xxtofl

Critical Paths under _main in BANK0

    None.

Critical Paths under _InterruptManager in BANK0

    _CCP1_ISR->_ccp1_isr
    _ccp1_isr->___fldiv
    ___fldiv->___flmul
    ___fladd->___flmul

Critical Paths under _main in BANK1

    _main->_sensor_initialize
    _main->_servo_initialize
    _servo_initialize->_gpio_pin_initialize
    _servo90->_ccp2_register_write
    _servo0->_ccp2_register_write
    _sensor_initialize->_gpio_pin_initialize
    _gpio_pin_initialize->_gpio_pin_write_logic

Critical Paths under _InterruptManager in BANK1

    None.

Critical Paths under _main in BANK3

    None.

Critical Paths under _InterruptManager in BANK3

    None.

Critical Paths under _main in BANK2

    None.

Critical Paths under _InterruptManager in BANK2

    None.

Call Graph Tables:

 ---------------------------------------------------------------------------------
 (Depth) Function   	        Calls       Base Space   Used Autos Params    Refs
 ---------------------------------------------------------------------------------
 (0) _main                                                 0     0      0    6465
                             ___flge
                  _sensor_initialize
                             _servo0
                            _servo90
                   _servo_initialize
                        _timer1_inti
 ---------------------------------------------------------------------------------
 (1) _timer1_inti                                          4     4      0     483
                                              0 BANK1      3     3      0
              _all_interrupt_disable
               _all_interrupt_enable
 ---------------------------------------------------------------------------------
 (1) _servo_initialize                                     4     3      1    2498
                                             12 BANK1      4     3      1
                          _ccp1_init
                          _ccp2_init
                _gpio_pin_initialize
 ---------------------------------------------------------------------------------
 (1) _servo90                                              0     0      0     174
                _ccp2_register_write
 ---------------------------------------------------------------------------------
 (1) _servo0                                               0     0      0     174
                _ccp2_register_write
 ---------------------------------------------------------------------------------
 (2) _ccp2_register_write                                  2     0      2     174
                                              0 BANK1      2     0      2
 ---------------------------------------------------------------------------------
 (1) _sensor_initialize                                    4     3      1    2498
                                             12 BANK1      4     3      1
                          _ccp1_init
                          _ccp2_init
                _gpio_pin_initialize
 ---------------------------------------------------------------------------------
 (2) _gpio_pin_initialize                                  4     4      0    1574
                                              8 BANK1      4     4      0
      _gpio_pin_direction_initialize
               _gpio_pin_write_logic
 ---------------------------------------------------------------------------------
 (3) _gpio_pin_write_logic                                 8     7      1     879
                                              0 BANK1      8     7      1
 ---------------------------------------------------------------------------------
 (3) _gpio_pin_direction_initialize                        7     7      0     349
                                              0 BANK1      7     7      0
 ---------------------------------------------------------------------------------
 (2) _ccp2_init                                            3     3      0     343
                                              0 BANK1      2     2      0
              _all_interrupt_disable
               _all_interrupt_enable
 ---------------------------------------------------------------------------------
 (2) _ccp1_init                                            3     3      0     343
                                              0 BANK1      2     2      0
              _all_interrupt_disable
               _all_interrupt_enable
 ---------------------------------------------------------------------------------
 (2) _all_interrupt_enable                                 0     0      0       0
 ---------------------------------------------------------------------------------
 (2) _all_interrupt_disable                                0     0      0       0
 ---------------------------------------------------------------------------------
 (1) ___flge                                              12     4      8     638
                                              0 BANK1     12     4      8
 ---------------------------------------------------------------------------------
 Estimated maximum stack depth 3
 ---------------------------------------------------------------------------------
 (Depth) Function   	        Calls       Base Space   Used Autos Params    Refs
 ---------------------------------------------------------------------------------
 (4) _InterruptManager                                     4     4      0    8366
                                             60 BANK0      4     4      0
                           _CCP1_ISR
                           _CCP2_ISR
                         _TIMER1_ISR
 ---------------------------------------------------------------------------------
 (5) _TIMER1_ISR                                           0     0      0     503
                                NULL *
                         _timer1_isr *
 ---------------------------------------------------------------------------------
 (6) _timer1_isr                                           1     1      0     503
                                              7 COMMON     1     1      0
             i1_gpio_pin_write_logic
 ---------------------------------------------------------------------------------
 (5) _CCP2_ISR                                             0     0      0     503
                                NULL *
                           _ccp2_isr *
 ---------------------------------------------------------------------------------
 (6) _ccp2_isr                                             0     0      0     503
             i1_gpio_pin_write_logic
 ---------------------------------------------------------------------------------
 (7) i1_gpio_pin_write_logic                               8     7      1     503
                                              0 COMMON     7     6      1
 ---------------------------------------------------------------------------------
 (5) _CCP1_ISR                                             0     0      0    7360
                                NULL *
                           _ccp1_isr *
 ---------------------------------------------------------------------------------
 (6) _ccp1_isr                                             8     8      0    7360
                                             52 BANK0      8     8      0
                            ___fladd
                            ___fldiv
                            ___flmul
                           ___xxtofl
                   _ccp1_change_mode
 ---------------------------------------------------------------------------------
 (7) _ccp1_change_mode                                     1     1      0      22
                                              0 COMMON     1     1      0
 ---------------------------------------------------------------------------------
 (7) ___xxtofl                                            14    10      4     626
                                              0 COMMON    14    10      4
 ---------------------------------------------------------------------------------
 (7) ___flmul                                             26    18      8    3025
                                              0 BANK0     26    18      8
                          __Umul8_16
                           ___xxtofl (ARG)
 ---------------------------------------------------------------------------------
 (8) __Umul8_16                                            9     7      2     799
                                              0 COMMON     9     7      2
 ---------------------------------------------------------------------------------
 (7) ___fldiv                                             26    18      8    1273
                                             26 BANK0     26    18      8
                            ___flmul (ARG)
 ---------------------------------------------------------------------------------
 (7) ___fladd                                             20    12      8    2414
                                             26 BANK0     20    12      8
                            ___flmul (ARG)
                           ___xxtofl (ARG)
 ---------------------------------------------------------------------------------
 (6) NULL(Fake)                                            0     0      0       0
 ---------------------------------------------------------------------------------
 Estimated maximum stack depth 8
 ---------------------------------------------------------------------------------

 Call Graph Graphs:

 _main (ROOT)
   ___flge
   _sensor_initialize
     _ccp1_init
       _all_interrupt_disable
       _all_interrupt_enable
     _ccp2_init
       _all_interrupt_disable
       _all_interrupt_enable
     _gpio_pin_initialize
       _gpio_pin_direction_initialize
       _gpio_pin_write_logic
   _servo0
     _ccp2_register_write
   _servo90
     _ccp2_register_write
   _servo_initialize
     _ccp1_init
     _ccp2_init
     _gpio_pin_initialize
   _timer1_inti
     _all_interrupt_disable
     _all_interrupt_enable

 _InterruptManager (ROOT)
   _CCP1_ISR
     NULL(Fake) *
     _ccp1_isr *
       ___fladd
         ___flmul (ARG)
           __Umul8_16
           ___xxtofl (ARG)
         ___xxtofl (ARG)
       ___fldiv
         ___flmul (ARG)
       ___flmul
       ___xxtofl
       _ccp1_change_mode
   _CCP2_ISR
     NULL(Fake) *
     _ccp2_isr *
       i1_gpio_pin_write_logic
   _TIMER1_ISR
     NULL(Fake) *
     _timer1_isr *
       i1_gpio_pin_write_logic

 Address spaces:
Name               Size   Autos  Total    Cost      Usage
BANK3               60      0       0       9        0.0%
BITBANK3            60      0       0       8        0.0%
SFR3                 0      0       0       4        0.0%
BITSFR3              0      0       0       4        0.0%
BANK2               60      0       0      11        0.0%
BITBANK2            60      0       0      10        0.0%
SFR2                 0      0       0       5        0.0%
BITSFR2              0      0       0       5        0.0%
BANK1               50     10      3D       7       76.2%
BITBANK1            50      0       0       6        0.0%
SFR1                 0      0       0       2        0.0%
BITSFR1              0      0       0       2        0.0%
BANK0               50     40      4D       5       96.2%
BITBANK0            50      0       0       4        0.0%
SFR0                 0      0       0       1        0.0%
BITSFR0              0      0       0       1        0.0%
COMMON               E      E       E       1      100.0%
BITCOMMON            E      0       0       0        0.0%
CODE                 0      0       0       0        0.0%
DATA                 0      0      98      12        0.0%
ABS                  0      0      98       3        0.0%
NULL                 0      0       0       0        0.0%
STACK                0      0       0       2        0.0%
EEDATA             100      0       0       0        0.0%


Microchip Technology PIC Macro Assembler V2.45 build 20230818022343 
Symbol Table                                                                                   Mon May 20 04:06:32 2024

                     ??_InterruptManager 005C                   i1_gpio_pin_write_logic 0A1F  
                           ___fldiv@aexp 0053                             ___fldiv@bexp 0052  
                                      pc 0002                             ___fldiv@sign 004B  
                                     l31 0A1D                                       l32 0A1E  
                                     l50 0988                                       l27 09D6  
                                     l61 07FF                                       l54 09CB  
                                     l55 09CC                                       fsr 0004  
                    __Umul8_16@word_mpld 0076                                      l104 0B90  
                                    l123 0B10                                      l144 093E  
                                    l241 0D78                                      l227 0CD8  
                                    l181 17BB                                      l341 08B3  
                                    l351 17E4                                      l178 17BE  
                                    l354 17F0                                      l348 08DE  
                                    l651 0CB5                                      l656 0CCE  
                                    l648 0C49            gpio_pin_initialize@pin_config 00CA  
                                    _end 0062                                      fsr0 0004  
                                    indf 0000                             ___flmul@aexp 0032  
                           ___flmul@bexp 0033                             ___flmul@sign 002D  
                           ___flmul@temp 0038                             ___flmul@prod 0034  
                                   l3010 0C2B                                     l3020 0C8D  
                                   l3012 0C41                                     l3022 0C91  
                                   l3014 0C5D                                     l3006 17D9  
                                   l3024 0CCB                                     l3016 0C65  
                                   l2160 17BC                                     l3008 17E5  
                                   l3026 0CCD                                     l3018 0C69  
                                   l2158 17B9                                     l3340 0B14  
                                   l3430 09D6                                     l3350 0B51  
                                   l3342 0B14                                     l3440 09EE  
                                   l3432 09DA                                     l3424 09D0  
                                   l3352 0B54                                     l3360 0B8F  
                                   l3344 0B19                                     l3600 08BE  
                                   l3520 0CD2                                     l3442 09F1  
                                   l3434 09DD                                     l3426 09D0  
                                   l3450 0982                                     l3346 0B28  
                                   l3370 0A98                                     l3602 08C5  
                                   l3530 0CEC                                     l3522 0CD2  
                                   l3444 09F6                                     l3436 09E2  
                                   l3428 09D5                                     l3460 098F  
                                   l3452 0982                                     l3348 0B2A  
                                   l3380 0AD5                                     l3372 0A98  
                                   l3540 0D0D                                     l3532 0CF6  
                                   l3524 0CD7                                     l3446 0A09  
                                   l3438 09E5                                     l3470 09A4  
                                   l3462 0994                                     l3454 0987  
                                   l3358 0B7B                                     l3382 0AD8  
                                   l3390 0B0F                                     l3374 0A9D  
                                   l3606 08CC                                     l3550 0D25  
                                   l3542 0D11                                     l3534 0CF9  
                                   l3526 0CDB                                     l3630 0B97  
                                   l3448 0A14                                     l3472 09B7  
                                   l3464 0997                                     l3456 0988  
                                   l3376 0AAC                                     l3480 0913  
                                   l3800 08D6                                     l3560 0D3E  
                                   l3544 0D11                                     l3536 0D02  
                                   l3552 0D29                                     l3528 0CE8  
                                   l3640 0BCF                                     l3632 0BA0  
                                   l3474 09C2                                     l3466 099E  
                                   l3458 098C                                     l3378 0AAE  
                                   l3482 0922                                     l3802 08AB  
                                   l3570 0D65                                     l3562 0D3F  
                                   l3546 0D1A                                     l3538 0D06  
                                   l3650 0C16                                     l3642 0BEA  
                                   l3634 0BAA                                     l3468 099F  
                                   l3804 0B07                                     l3388 0AFF  
                                   l3484 0923                                     l3476 090E  
                                   l3572 0D68                                     l3564 0D4C  
                                   l3548 0D1E                                     l3556 0D29  
                                   l3652 0C1A                                     l3644 0BF1  
                                   l3636 0BAF                                     l3628 0B91  
                                   l3806 0B87                                     l3478 090E  
                                   l3590 08A1                                     l3582 088C  
                                   l2838 07F3                                     l3574 0D6F  
                                   l3566 0D5D                                     l3558 0D3D  
                                   l3646 0BF9                                     l3638 0BB6  
                                   l3654 0C1D                                     l3584 0893  
                                   l3576 0D70                                     l3568 0D62  
                                   l3656 0C22                                     l3648 0BFB  
                                   l3586 089A                                     l3578 0D75  
                                   l3598 08B7                                     u4100 0B19  
                                   u4101 0B18                                     u4110 0B28  
                                   u4111 0B27                                     u4220 09D5  
                                   u4124 0B37                                     u4140 0A9D  
                                   u4221 09D4                                     u4125 0B35  
                                   u4141 0A9C                                     u4230 0A14  
                                   u4134 0B61                                     u4150 0AAC  
                                   u4231 0A13                                     u4135 0B5F  
                                   u4151 0AAB                                     u4240 0A1D  
                                   u4241 0A1C                                     u4250 0987  
                                   u4330 0CD7                                     u4251 0986  
                                   u4331 0CD6                                     u3700 0C41  
                                   u4260 09C2                                     u4164 0ABB  
                                   u4340 0CE8                                     u4500 0BF7  
                                   u3701 0C40                                     u4261 09C1  
                                   u4165 0AB9                                     u4341 0CE7  
                                   u4501 0BF5                                     u3710 0C5D  
                                   u4270 09CB                                     u4174 0AE5  
                                   u4350 0CF6                                     u4510 0BF8  
                                   u3711 0C5C                                     u4271 09CA  
                                   u4175 0AE3                                     u4351 0CF5  
                                   u3720 0C69                                     u4280 0913  
                                   u4360 0D02                                     u4520 0C16  
                                   u3721 0C68                                     u4281 0912  
                                   u4361 0D01                                     u4521 0C15  
                                   u4290 0922                                     u4370 0D0D  
                                   u4530 0C22                                     u3731 0C78  
                                   u4291 0921                                     u4371 0D0C  
                                   u4531 0C21                                     u3740 0C91  
                                   u3732 0C79                                     u4380 0D1A  
                                   u4460 0BB6                                     u3741 0C90  
                                   u3733 0C7E                                     u4381 0D19  
                                   u4461 0BB5                                     u3734 0C7F  
                                   u4390 0D25                                     u4470 0BCF  
                                   u3751 0CA0                                     u3735 0C84  
                                   u4391 0D24                                     u4471 0BCE  
                                   u3760 0CCB                                     u3752 0CA1  
                                   u3736 0C85                                     u4480 0BEA  
                                   u3761 0CCA                                     u3753 0CA6  
                                   u4481 0BE9                                     u3754 0CA7  
                                   u4490 0BF1                                     i1l35 17D8  
                                   u3755 0CAC                                     u4491 0BF0  
                                   u3756 0CAD                                     i1l45 17FF  
                                   u3765 0CC7                                     i1l68 0812  
                                   _ccp1 00BB                                     _ccp2 00B9  
                                   _main 0B91                         __end_of_CCP1_ISR 1800  
                       __end_of_CCP2_ISR 0813                                     _tmr1 00B5  
                                   _time 00D3                                     btemp 007E  
                                   start 0012                          ___fldiv@new_exp 004C  
                   _gpio_pin_write_logic 0A95                              ?_TIMER1_ISR 0070  
                          fp__timer1_isr 005A                          __end_of___fladd 05FA  
                                  ?_main 0070                          __end_of___fldiv 1000  
                                  _CCPR1 0015                                    _CCPR2 001B  
                        __end_of___flmul 03A2                                    i1l201 0950  
                                  i1l123 0A94                                    i1l203 0961  
                                  i1l206 0972                                    i1l262 0842  
                                  i1l361 17CC                                    i1l358 090A  
                                  i1l367 079C                                    i1l368 07F2  
                                  i1l802 058F                                    i1l814 05F9  
                                  i1l911 0D9B                                    i1l913 0E30  
                                  i1l771 03FD                                    i1l843 0F79  
                                  i1l827 0E87                                    i1l924 0DFA  
                                  i1l829 0FFF                                    i1l925 0E06  
                                  i1l775 0480                                    i1l792 0549  
                                  i1l784 05F9                                    i1l777 0459  
                                  i1l849 0FEB                                    i1l873 0311  
                                  i1l867 03A1                                    i1l796 056D  
                                  i1l886 0876                                    i1l888 0888  
                                  _TMR1H 000F                                    _TMR1L 000E  
                                  _PORTA 0005                                    _PORTB 0006  
                                  _PORTC 0007                                    _PORTD 0008  
                                  _PORTE 0009                                    _TRISA 0085  
                                  _TRISB 0086                                    _TRISC 0087  
                                  _TRISD 0088                                    _TRISE 0089  
           __end_of_all_interrupt_enable 17BF                                    _servo 00BD  
                                  _start 0064                                    fpbase 0000  
                      ccp2_init@ccp2_obj 00C0                                    pclath 000A  
                        __end_of_servo90 17F1              sensor_initialize@ccp_select 00CB  
                                  status 0003                                    wtemp0 007E  
         ?_gpio_pin_direction_initialize 00BF                          __initialization 0015  
                           __end_of_main 0C2B                    ?_gpio_pin_write_logic 00BF  
                                 ??_main 00CF                         _servo_initialize 08B4  
                       __end_of_ccp1_isr 07F3                         __end_of_ccp2_isr 17CD  
                                 i1l2300 0425                                   i1l2310 045D  
                                 i1l2302 0427                                   i1l2230 03AB  
                                 i1l2150 0870                                   i1l2400 05AB  
                                 i1l2320 0474                                   i1l2312 0464  
                                 i1l2304 0429                                   i1l2240 03C2  
                                 i1l2232 03AF                                   i1l2152 087F  
                                 i1l2144 0863                                   i1l2410 05DF  
                                 i1l2402 05C9                                   i1l2330 0492  
                                 i1l2314 0466                                   i1l2322 0478  
                                 i1l2306 042A                                   i1l2250 03D6  
                                 i1l2242 03C3                                   i1l2234 03B0  
                                 i1l2226 03A2                                   i1l2154 0884  
                                 i1l2146 0865                                   i1l2162 17CE  
                                 i1l2420 05EF                                   i1l2412 05E4  
                                 i1l2404 05CD                                   i1l2340 04BA  
                                 i1l2332 04A9                                   i1l2324 0484  
                                 i1l2316 046A                                   i1l2308 0441  
                                 i1l2260 03E5                                   i1l2252 03D7  
                                 i1l2236 03B5                                   i1l2244 03C5  
                                 i1l2228 03A7                                   i1l2500 0F07  
                                 i1l2148 086C                                   i1l2164 17D7  
                                 i1l2422 05F4                                   i1l2414 05E5  
                                 i1l2406 05D2                                   i1l2350 04E3  
                                 i1l2342 04BE                                   i1l2334 04AD  
                                 i1l2326 0489                                   i1l2318 046B  
                                 i1l2270 0403                                   i1l2262 03EA  
                                 i1l2254 03DB                                   i1l2246 03CD  
                                 i1l2238 03BA                                   i1l2510 0F32  
                                 i1l2502 0F19                                   i1l2430 0E3A  
                                 i1l2424 05F8                                   i1l2416 05E9  
                                 i1l2408 05D7                                   i1l2352 0521  
                                 i1l2360 053B                                   i1l2344 04BF  
                                 i1l2336 04B1                                   i1l2280 0411  
                                 i1l2272 0407                                   i1l2264 03F2  
                                 i1l2256 03DF                                   i1l2248 03D0  
                                 i1l2520 0F4A                                   i1l2512 0F3A  
                                 i1l2504 0F1A                                   i1l2440 0E51  
                                 i1l2432 0E3E                                   i1l2600 009A  
                                 i1l3400 0A20                                   i1l2418 05EB  
                                 i1l2370 0568                                   i1l2362 0551  
                                 i1l2354 0525                                   i1l2346 04C8  
                                 i1l2338 04B8                                   i1l2290 041B  
                                 i1l2282 0413                                   i1l2274 040B  
                                 i1l2266 03F3                                   i1l2258 03E0  
                                 i1l2530 0F62                                   i1l2522 0F53  
                                 i1l2514 0F3C                                   i1l2506 0F28  
                                 i1l2450 0E65                                   i1l2442 0E52  
                                 i1l2434 0E3F                                   i1l2426 0E31  
                                 i1l2610 00B6                                   i1l2602 009F  
                                 i1l3410 0A5C                                   i1l3402 0A20  
                                 i1l2380 057B                                   i1l2372 056C  
                                 i1l2364 0556                                   i1l2356 0527  
                                 i1l2348 04CD                                   i1l2292 041D  
                                 i1l2284 0415                                   i1l2276 040D  
                                 i1l2268 03F5                                   i1l2540 0F91  
                                 i1l2532 0F76                                   i1l2516 0F45  
                                 i1l2524 0F59                                   i1l2508 0F2C  
                                 i1l2460 0E7C                                   i1l2452 0E69  
                                 i1l2436 0E44                                   i1l2444 0E54  
                                 i1l2428 0E36                                   i1l2700 037F  
                                 i1l2620 00DF                                   i1l2612 00BB  
                                 i1l2604 00A7                                   i1l3412 0A5D  
                                 i1l3404 0A25                                   i1l3500 0907  
                                 i1l2390 058C                                   i1l2374 0571  
                                 i1l2382 057D                                   i1l2358 052C  
                                 i1l2294 041F                                   i1l2286 0417  
                                 i1l2278 040F                                   i1l2550 0FCF  
                                 i1l2542 0F95                                   i1l2526 0F5D  
                                 i1l2518 0F49                                   i1l2470 0E9F  
                                 i1l2462 0E7D                                   i1l2454 0E6A  
                                 i1l2446 0E5C                                   i1l2438 0E49  
                                 i1l2710 0399                                   i1l2702 038B  
                                 i1l2630 0178                                   i1l2622 00FA  
                                 i1l2606 00A9                                   i1l3406 0A34  
                                 i1l3502 17C5                                   i1l3510 0826  
                                 i1l2376 0574                                   i1l2368 055F  
                                 i1l2384 0581                                   i1l2296 0421  
                                 i1l2288 0419                                   i1l2560 0FF3  
                                 i1l2552 0FDE                                   i1l2544 0FAE  
                                 i1l2536 0F7E                                   i1l2528 0F5E  
                                 i1l2480 0EB6                                   i1l2456 0E6F  
                                 i1l2464 0E7F                                   i1l2448 0E61  
                                 i1l2704 038F                                   i1l2640 01D7  
                                 i1l2632 0181                                   i1l2624 0116  
                                 i1l2616 00C4                                   i1l2608 00B1  
                                 i1l2720 0D93                                   i1l3408 0A35  
                                 i1l3504 0802                                   i1l3512 0829  
                                 i1l2394 0594                                   i1l2386 0582  
                                 i1l2378 0576                                   i1l2298 0423  
                                 i1l2562 0FF5                                   i1l2554 0FE2  
                                 i1l2538 0F83                                   i1l2546 0FB4  
                                 i1l2490 0EE2                                   i1l2482 0EC8  
                                 i1l2466 0E8F                                   i1l2474 0EA8  
                                 i1l2458 0E74                                   i1l2706 0390  
                                 i1l2650 026F                                   i1l2642 01EE  
                                 i1l2634 018F                                   i1l2626 0140  
                                 i1l2618 00D2                                   i1l2730 0DB3  
                                 i1l2722 0DA3                                   i1l2714 0D7A  
                                 i1l3418 0A84                                   i1l3506 0805  
                                 i1l3514 082F                                   i1l2396 0599  
                                 i1l2388 0586                                   i1l2564 0FF9  
                                 i1l2556 0FEA                                   i1l2548 0FC1  
                                 i1l2492 0EE7                                   i1l2484 0ED0  
                                 i1l2476 0EAD                                   i1l2468 0E9B  
                                 i1l2708 0395                                   i1l2660 02DD  
                                 i1l2652 0295                                   i1l2644 020B  
                                 i1l2636 01AC                                   i1l2628 015C  
                                 i1l2580 006B                                   i1l2572 005D  
                                 i1l2740 0DDE                                   i1l2732 0DBC  
                                 i1l2716 0D7F                                   i1l3508 080C  
                                 i1l3516 0835                                   i1l3620 0956  
                                 i1l2398 05A7                                   i1l2558 0FEF  
                                 i1l2494 0EF9                                   i1l2486 0ED8  
                                 i1l2670 02F5                                   i1l2662 02E1  
                                 i1l2654 02BD                                   i1l2646 0236  
                                 i1l2638 01BA                                   i1l2590 0087  
                                 i1l2582 0070                                   i1l2574 0062  
                                 i1l2750 0E08                                   i1l2742 0DE5  
                                 i1l2734 0DC3                                   i1l2726 0DAC  
                                 i1l2718 0D83                                   i1l3518 083C  
                                 i1l3622 095C                                   i1l3614 093F  
                                 i1l2496 0EFD                                   i1l2488 0EE0  
                                 i1l2680 0316                                   i1l2672 02F6  
                                 i1l2664 02E2                                   i1l2656 02C6  
                                 i1l2648 0244                                   i1l2592 008C  
                                 i1l2584 0075                                   i1l2576 0066  
                                 i1l2752 0E1E                                   i1l2744 0DF0  
                                 i1l2736 0DC7                                   i1l2728 0DAF  
                                 i1l3624 0967                                   i1l3616 0945  
                                 i1l2498 0EFE                                   i1l2682 031B  
                                 i1l2690 034C                                   i1l2674 02FA  
                                 i1l2666 02EB                                   i1l2658 02D4  
                                 i1l2594 0090                                   i1l2586 007D  
                                 i1l2578 006A                                   i1l2754 0E23  
                                 i1l2746 0DF4                                   i1l2738 0DD5  
                                 i1l3490 08E7                                   i1l3626 096D  
                                 i1l3618 094B                                   i1l2692 0359  
                                 i1l2684 0329                                   i1l2676 030E  
                                 i1l2668 02F1                                   i1l2596 0094  
                                 i1l2588 007F                                   i1l2756 0E27  
                                 i1l2748 0DFE                                   i1l3492 08ED  
                                 i1l2694 0364                                   i1l2686 032D  
                                 i1l2598 0095                                   i1l2758 0E28  
                                 i1l2870 0601                                   i1l3494 08F3  
                                 u220_20 03BA                                   i1l2696 0373  
                                 i1l2688 0346                                   u300_20 00BB  
                                 i1l2880 0619                                   i1l2872 0605  
                                 i1l3808 0A8C                                   i1l3496 08FB  
                                 i1l3488 08DF                                   u220_21 03B9  
                                 u300_21 00BA                                   i1l2698 037D  
                                 i1l2882 061D                                   i1l2874 060B  
                                 i1l2890 17F1                                   i1l3498 0900  
                                 i1l2884 0621                                   i1l2876 060F  
                                 i1l2868 05FA                                   i1l2892 17F4  
                                 i1l2886 0629                                   i1l2878 0613  
                                 i1l2894 17F9                                   u221_20 03D6  
                                 i1l2888 0669                                   u221_21 03D5  
                                 u301_21 0108                                   u301_22 010F  
                                 u301_23 0116                                   u230_20 045D  
                                 u222_20 03DF                                   u230_21 045C  
                                 u222_21 03DE                                   u310_21 0228  
                                 u302_21 0124                                   u310_22 022F  
                                 u302_22 012B                                   u310_23 0236  
                                 u302_23 0132                                   u231_20 046A  
                                 u223_20 03E5                                   u207_20 0870  
                                 u231_21 0469                                   u223_21 03E4  
                                 u207_21 086F                                   u311_21 0253  
                                 u303_21 014E                                   u311_22 025A  
                                 u303_22 0155                                   u311_23 0261  
                                 u303_23 015C                                   u224_20 03EA  
                                 u320_20 02F5                                   u312_20 027B  
                                 u224_21 03E9                                   u320_21 02F4  
                                 u304_21 016A                                   u304_22 0171  
                                 u304_23 0178                                   u240_25 04C1  
                                 u232_25 046D                                   u208_25 0877  
                                 u312_25 0276                                   u241_20 04E3  
                                 u233_20 0480                                   u225_20 0403  
                                 u209_20 0884                                   u321_20 02FA  
                                 u241_21 04E2                                   u233_21 047F  
                                 u225_21 0402                                   u209_21 0883  
                                 u321_21 02F9                                   u313_21 0287  
                                 u313_22 028E                                   u241_23 04DF  
                                 u313_23 0295                                   u305_25 017A  
                                 u250_20 057B                                   u234_20 0484  
                                 u226_20 0407                                   u218_20 03AF  
                                 u322_20 030E                                   u314_20 02A3  
                                 u330_20 0D7F                                   u250_21 057A  
                                 u242_21 04FA                                   u234_21 0483  
                                 u226_21 0406                                   u218_21 03AE  
                                 u322_21 030D                                   u306_21 019E  
                                 u330_21 0D7E                                   u242_22 04FB  
                                 u306_22 01A5                                   u242_23 0500  
                                 u306_23 01AC                                   u242_24 0501  
                                 u242_25 0506                                   u314_25 029E  
                                 u242_26 0507                                   u251_20 0581  
                                 u243_20 050E                                   u235_20 0489  
                                 u227_20 0441                                   u219_20 03B5  
                                 u323_20 0315                                   u331_20 0D83  
                                 u251_21 0580                                   u243_21 050F  
                                 u235_21 0488                                   u227_21 0440  
                                 u219_21 03B4                                   u323_21 0314  
                                 u315_21 02AF                                   u307_21 01C9  
                                 u331_21 0D82                                   u243_22 0514  
                                 u315_22 02B6                                   u307_22 01D0  
                                 u243_23 0515                                   u315_23 02BD  
                                 u307_23 01D7                                   u227_25 043D  
                                 u260_20 05D7                                   u252_20 0586  
                                 u244_20 052C                                   u228_20 044C  
                                 u324_20 031B                                   u340_20 0DFE  
                                 u332_20 0DA3                                   u260_21 05D6  
                                 u252_21 0585                                   u244_21 052B  
                                 u236_21 049B                                   u228_21 044A  
                                 u324_21 031A                                   u340_21 0DFD  
                                 u332_21 0DA2                                   u236_22 04A2  
                                 u236_23 04A9                                   u420_24 0A42  
                                 u316_25 02BF                                   u308_25 01D9  
                                 u420_25 0A40                                   u261_20 05E4  
                                 u253_20 058C                                   u245_20 0551  
                                 u237_20 04AD                                   u229_20 044D  
                                 u325_20 032D                                   u341_20 0E13  
                                 u261_21 05E3                                   u253_21 058B  
                                 u245_21 0550                                   u237_21 04AC  
                                 u325_21 032C                                   u309_21 01FD  
                                 u309_22 0204                                   u309_23 020B  
                                 u421_24 0A6A                                   u317_25 02D6  
                                 u341_25 0E0E                                   u333_25 0DB4  
                                 u421_25 0A68                                   u262_20 05E9  
                                 u254_20 0593                                   u246_20 0556  
                                 u238_20 04B1                                   u270_20 0E8F  
                                 u326_20 033C                                   u318_20 02E1  
                                 u342_20 0E23                                   u334_20 0DC2  
                                 u430_20 08F3                                   u262_21 05E8  
                                 u254_21 0592                                   u246_21 0555  
                                 u238_21 04B0                                   u270_21 0E8E  
                                 u318_21 02E0                                   u342_21 0E22  
                                 u334_21 0DC1                                   u430_21 08F2  
                                 u326_25 0337                                   u263_20 05F8  
                                 u255_20 0599                                   u239_20 04BE  
                                 u271_20 0EAD                                   u327_20 0359  
                                 u343_20 0E27                                   u431_20 080C  
                                 u263_21 05F7                                   u255_21 0598  
                                 u239_21 04BD                                   u271_21 0EAC  
                                 u327_21 0358                                   u343_21 0E26  
                                 u431_21 080B                                   u247_25 0561  
                                 u327_25 0355                                   u319_25 02E4  
                                 u335_25 0DD6                                   u256_20 05AB  
                                 u248_20 056C                                   u272_20 0EE7  
                                 u264_20 0E3E                                   u328_20 0373  
                                 u336_20 0DE4                                   u360_20 17F9  
                                 u432_20 083C                                   u440_20 0945  
                                 u256_21 05AA                                   u248_21 056B  
                                 u272_21 0EE6                                   u264_21 0E3D  
                                 u328_21 0372                                   u336_21 0DE3  
                                 u360_21 17F8                                   u432_21 083B  
                                 u440_21 0944                                   u280_25 0F3E  
                                 u328_25 036F                                   u257_20 05BA  
                                 u249_20 0571                                   u281_20 0F49  
                                 u265_20 0E44                                   u329_20 038F  
                                 u441_20 094B                                   u249_21 0570  
                                 u281_21 0F48                                   u265_21 0E43  
                                 u329_21 038E                                   u441_21 094A  
                                 u257_25 05B5                                   u273_25 0EE9  
                                 u337_25 0DE9                                   u258_20 05C9  
                                 u290_20 0FC1                                   u266_20 0E49  
                                 u338_20 0DF4                                   u418_20 0A25  
                                 u442_20 0956                                   u258_21 05C8  
                                 u290_21 0FC0                                   u266_21 0E48  
                                 u338_21 0DF3                                   u418_21 0A24  
                                 u442_21 0955                                   u290_25 0FBD  
                                 u282_25 0F4C                                   u274_25 0EF2  
                                 u259_20 05D2                                   u291_20 0FDE  
                                 u283_20 0F5D                                   u275_20 0EFD  
                                 u267_20 0E69                                   u339_20 0DFA  
                                 u419_20 0A34                                   u443_20 095C  
                                 u259_21 05D1                                   u291_21 0FDD  
                                 u283_21 0F5C                                   u275_21 0EFC  
                                 u267_21 0E68                                   u339_21 0DF9  
                                 u419_21 0A33                                   u443_21 095B  
                                 u291_25 0FDA                                   u292_20 0FF3  
                                 u284_20 0F62                                   u268_20 0E6F  
                                 u444_20 0967                                   u292_21 0FF2  
                                 u284_21 0F61                                   u268_21 0E6E  
                                 u444_21 0966                                   u276_25 0F00  
                                 u285_20 0F76                                   u277_20 0F19  
                                 u269_20 0E74                                   u293_20 006A  
                                 u357_20 0601                                   u445_20 096D  
                                 u285_21 0F75                                   u277_21 0F18  
                                 u269_21 0E73                                   u293_21 0069  
                                 u357_21 0600                                   u445_21 096C  
                                 u277_25 0F15                                   u286_20 0F7D  
                                 u278_20 0F32                                   u294_20 0070  
                                 u358_20 0629                                   u286_21 0F7C  
                                 u278_21 0F31                                   u294_21 006F  
                                 u358_21 0628                                   u454_27 08FD  
                                 u287_20 0F83                                   u279_20 0F3A  
                                 u295_20 0075                                   u287_21 0F82  
                                 u279_21 0F39                                   u295_21 0074  
                                 u359_21 072B                                   u359_22 072C  
                                 u359_23 0731                                   u359_24 0732  
                                 u359_25 0737                                   u359_26 0738  
                                 u288_20 0F95                                   u296_20 0094  
                                 u288_21 0F94                                   u296_21 0093  
                                 u289_20 0FA4                                   u297_20 009A  
                                 u297_21 0099                                   u289_25 0F9F  
                                 u298_20 009F                                   u298_21 009E  
                                 u299_20 00B6                                   u299_21 00B5  
                             __i1fptable 004E                         __end_of___xxtofl 0E31  
          __end_of_all_interrupt_disable 17BC                                   ___flge 0C2B  
                              ??___fladd 0042                                ??___fldiv 0042  
                              ??___flmul 0028                             ?_timer1_inti 00BF  
           sensor_initialize@trigger_pin 00CE                                   _servo0 17D9  
                                 fptable 004D                                ?_CCP1_ISR 0070  
                              ?_CCP2_ISR 0070                                   fptotal 0000  
                                 saved_w 007E                                ??_servo90 00C1  
                             ___flge@ff1 00BF                               ___flge@ff2 00C3  
                           ___xxtofl@arg 007A                             ___xxtofl@exp 0079  
                           ___xxtofl@val 0070                  __end_of__initialization 0049  
                ?i1_gpio_pin_write_logic 0070                   ??_gpio_pin_write_logic 00C0  
                         __pcstackCOMMON 0070                     _all_interrupt_enable 17BC  
                           __pidataBANK0 17BF                             __pidataBANK1 0843  
                    timer1_inti@tmr1_obj 00C1                               ??_CCP1_ISR 007E  
                             ??_CCP2_ISR 0077                        _sensor_initialize 0889  
                     ?_sensor_initialize 00CB                               __pbssBANK0 0060  
                             __pbssBANK1 00CF                      ??_sensor_initialize 00CC  
         __end_ofi1_gpio_pin_write_logic 0A95                        __end_of__Umul8_16 0889  
                             __pmaintext 0B91                    ?_all_interrupt_enable 0070  
                                ?___flge 00BF                             ??_TIMER1_ISR 0078  
                             __pintentry 0004                                ?_ccp1_isr 0070  
                              ?_ccp2_isr 0070                                  ?_servo0 0070  
                      __end_of_ccp1_init 0A1F                        __end_of_ccp2_init 09CD  
                _TIMER1_InterruptHandler 00DB                __end_of_sensor_initialize 08B4  
                              ?___xxtofl 0070                           _tris_registers 00AA  
                                i1fpbase 0053                       __end_of_TIMER1_ISR 0843  
               __end_of_servo_initialize 08DF                      _gpio_pin_initialize 090B  
                                ___fladd 03A2                                  ___fldiv 0E31  
                                ___flmul 005D                               ??_ccp1_isr 0054  
                             ??_ccp2_isr 0077                                  __ptext1 0CCF  
                                __ptext2 08B4                                  __ptext3 17E5  
                                __ptext4 17D9                                  __ptext5 07F3  
                                __ptext6 0889                                  __ptext7 090B  
                                __ptext8 0A95                                  __ptext9 0B11  
                    __size_of__i1fptable 000F                                _T1CONbits 0010  
        ??_gpio_pin_direction_initialize 00BF                                  _counter 006C  
                             ??___xxtofl 0074                                  _servo90 17E5  
                   ?_gpio_pin_initialize 00C8                                  _trigger 00BE  
                   end_of_initialization 0049                   ??_all_interrupt_enable 00BF  
                             _timer1_isr 08DF                         _ccp1_change_mode 17CD  
                    _ccp2_register_write 07F3                         _InterruptManager 093F  
                            ___fladd@grs 004D                            ___xxtofl@sign 0078  
                              _TRISCbits 0087                    ??_gpio_pin_initialize 00C7  
                            ___fldiv@grs 004E                              ___fldiv@rem 0047  
                  _ccp1_InterruptHandler 0066                     ?_ccp2_register_write 00BF  
                            ___flmul@grs 002E                              _CCP1CONbits 0017  
                            _CCP2CONbits 001D               servo_initialize@ccp_select 00CB  
                  _all_interrupt_disable 17B9                           __end_of___flge 0CCF  
                         __end_of_servo0 17E5                servo_initialize@servo_pin 00CE  
                    start_initialization 0015    __end_of_gpio_pin_direction_initialize 0B91  
          _gpio_pin_direction_initialize 0B11                    ??_ccp2_register_write 00C1  
                               ??___flge 00C7                              ?_timer1_isr 0070  
                             init_fetch0 0813                                __Umul8_16 0862  
                            __pdataBANK0 0067                              __pdataBANK1 00A0  
                           _object_exist 00D9                                 ??_servo0 00C1  
                              ___fladd@a 003E                                ___fladd@b 003A  
                     __end_of__i1fptable 005D                                ___fldiv@a 003A  
                              ___fldiv@b 003E                                ___flmul@a 0024  
                              ___flmul@b 0020                                _ccp1_init 09CD  
                              ___latbits 0002                                _ccp2_init 097F  
                          __pcstackBANK0 0020                            __pcstackBANK1 00BF  
                         _preload_timer1 00D7           gpio_pin_write_logic@pin_config 00C6  
                              __pfunctab 004D                   ?_all_interrupt_disable 0070  
                               ?___fladd 003A                                 ?___fldiv 003A  
                               ?___flmul 0020                    _ccp2_InterruptHandler 00DC  
                      ?_servo_initialize 00CB                               ?__Umul8_16 0070  
              gpio_pin_write_logic@logic 00BF                       ??_servo_initialize 00CC  
               ccp2_register_write@value 00BF                                 _CCP1_ISR 17F1  
                               _CCP2_ISR 0802                               ?_ccp1_init 00BF  
                             ?_ccp2_init 00BF                                 ?_servo90 0070  
                              _read_once 00B4                 __end_of_ccp1_change_mode 17D9  
                      interrupt_function 0004                 __end_of_InterruptManager 097F  
                               _PIE1bits 008C                                 _PIE2bits 008D  
                               _PIR1bits 000C                                 _PIR2bits 000D  
       gpio_pin_direction_initialize@ret 00C4                            ??_timer1_inti 00BF  
gpio_pin_direction_initialize@pin_config 00C5                   gpio_pin_initialize@ret 00C9  
               ??i1_gpio_pin_write_logic 0071                                 i1fptable 004E  
                gpio_pin_write_logic@ret 00C5                                 i1fptotal 0006  
            i1gpio_pin_write_logic@logic 0070                     ccp1_change_mode@mode 0070  
                            ??__Umul8_16 0072                                 _ccp1_isr 05FA  
                               _ccp2_isr 17C5              __end_of_gpio_pin_initialize 093F  
                    __end_of_timer1_inti 0D79                                 ___xxtofl 0D79  
                            ??_ccp1_init 00BF                              ??_ccp2_init 00BF  
                               _clk_time 0067                                 __ptext10 097F  
                               __ptext11 09CD                                 __ptext20 0A1F  
                               __ptext12 17BC                                 __ptext21 17F1  
                               __ptext13 17B9                                 __ptext22 05FA  
                               __ptext14 0C2B                                 __ptext23 17CD  
                               __ptext15 093F                                 __ptext24 0D79  
                               __ptext16 0826                                 __ptext25 005D  
                               __ptext17 08DF                                 __ptext26 0862  
                               __ptext18 0802                                 __ptext27 0E31  
                               __ptext19 17C5                                 __ptext28 03A2  
                      ccp1_init@ccp1_obj 00C0                                 _distance 00CF  
                               _open_bin 00DA                             ??_timer1_isr 0077  
                               _overflow 0060              __end_of_ccp2_register_write 0800  
                             _INTCONbits 000B                                 init_ram0 0817  
           __end_of_gpio_pin_write_logic 0B11                                 intlevel1 004D  
                     __end_of_timer1_isr 090B                  ??_all_interrupt_disable 00BF  
                             _TIMER1_ISR 0826                              _timer1_inti 0CCF  
       i1gpio_pin_write_logic@pin_config 0076                   __Umul8_16@multiplicand 0070  
                         _port_registers 00A0                              _rising_edge 006B  
                            fp__ccp1_isr 0054                              fp__ccp2_isr 0057  
                          ___fladd@signs 004A                        ?_ccp1_change_mode 0070  
                           ___fladd@aexp 004B                             ___fladd@bexp 004C  
                     ??_ccp1_change_mode 0070                     __Umul8_16@multiplier 0078  
                      ?_InterruptManager 0070                        __Umul8_16@product 0074  
